(dp0
S'output_clusters'
p1
(lp2
I20
aI19
aI18
aI17
aI16
aI15
aI14
aI13
aI12
aI11
aI10
aI9
aI8
aI7
aI6
asS'distortion'
p3
(lp4
F158866394846.55304
aF165854841465.23853
aF209424475932.79623
aF210882439099.43875
aF257523094470.34372
aF265642320327.18253
aF273999812286.67493
aF300957083742.44525
aF409759400590.0937
aF452595640777.71625
aF479106607308.0914
aF607404453849.4805
aF607704110695.7352
aF873386979469.7283
aF1721363375274.0854
as.