(dp0
S'output_clusters'
p1
(lp2
I20
aI19
aI18
aI17
aI16
aI15
aI14
aI13
aI12
aI11
aI10
aI9
aI8
aI7
aI6
asS'distortion'
p3
(lp4
F43346616567.370995
aF43572685067.322044
aF47956771398.36998
aF75195590422.55962
aF76305792806.40341
aF83751677988.91675
aF92851824733.8917
aF95061330400.91187
aF123364931819.36792
aF128691501288.44057
aF136007319294.45241
aF175163886915.8305
aF256295541683.3451
aF304487213235.6512
aF473061548301.70715
as.