(dp0
S'output_clusters'
p1
(lp2
I20
aI19
aI18
aI17
aI16
aI15
aI14
aI13
aI12
aI11
aI10
aI9
aI8
aI7
aI6
asS'distortion'
p3
(lp4
F123389671106.6206
aF123483080788.27681
aF161626921206.76382
aF162018028052.88672
aF163567291743.99063
aF164745271371.3518
aF165471040577.26993
aF173058588040.28055
aF173535638065.6752
aF174267507472.60236
aF175790688405.04092
aF271254226924.20047
aF430845493901.4979
aF480503404944.00757
aF855406302600.9299
as.