(dp0
S'output_clusters'
p1
(lp2
I20
aI19
aI18
aI17
aI16
aI15
aI14
aI13
aI12
aI11
aI10
aI9
aI8
aI7
aI6
asS'distortion'
p3
(lp4
F341850583704.0547
aF392190427938.5421
aF418814444487.6942
aF441641633333.34503
aF475260676178.591
aF477113007869.9135
aF693980006271.2808
aF707481162063.751
aF717297472806.9475
aF873017865209.888
aF941617184525.7502
aF1005638949041.6797
aF1149516152182.7866
aF1632162002379.899
aF2376173737632.8
as.