(dp0
I0
c__builtin__
set
p1
((lp2
I576
aI1
aI476
atp3
Rp4
sI1
g1
((lp5
I0
aI712
aI319
aI935
atp6
Rp7
sI2
g1
((lp8
I288
aI673
aI3
aI37
aI297
aI202
aI459
aI146
aI527
aI624
aI722
aI656
aI400
aI605
atp9
Rp10
sI3
g1
((lp11
I288
aI2
aI36
aI181
aI431
atp12
Rp13
sI4
g1
((lp14
I260
aI5
aI264
aI11
aI217
aI155
aI162
aI163
aI169
aI556
aI49
aI183
aI569
aI445
aI203
aI453
aI75
aI591
aI855
aI89
aI481
aI356
aI102
aI233
aI362
aI748
aI497
aI754
aI886
aI759
aI379
aI255
atp15
Rp16
sI5
g1
((lp17
I48
aI4
aI230
aI168
aI10
aI272
aI95
aI74
aI94
aI255
atp18
Rp19
sI6
g1
((lp20
I160
aI291
aI773
aI7
aI8
aI490
aI235
aI109
aI814
aI15
aI341
aI333
aI439
aI283
aI479
atp21
Rp22
sI7
g1
((lp23
I6
atp24
Rp25
sI8
g1
((lp26
I160
aI292
aI6
aI38
aI136
aI9
aI523
aI452
aI333
aI535
aI208
aI328
aI22
aI1017
aI516
aI506
aI159
atp27
Rp28
sI9
g1
((lp29
I129
aI388
aI8
aI137
aI277
aI278
aI25
aI28
aI158
aI160
aI291
aI293
aI92
aI71
aI777
aI563
aI182
aI649
aI825
aI315
aI61
aI447
aI416
aI1091
aI68
aI198
aI199
aI200
aI201
aI76
aI463
aI604
aI222
aI228
aI124
aI241
aI508
aI127
atp30
Rp31
sI10
g1
((lp32
I256
aI260
aI5
aI264
aI11
aI272
aI19
aI217
aI155
aI162
aI163
aI169
aI556
aI49
aI183
aI569
aI203
aI453
aI75
aI591
aI855
aI344
aI89
aI602
aI96
aI481
aI102
aI358
aI233
aI362
aI748
aI754
aI886
aI759
aI762
aI379
aI255
atp33
Rp34
sI11
g1
((lp35
I1315
aI4
aI230
aI168
aI10
aI272
aI74
aI95
atp36
Rp37
sI12
g1
((lp38
I896
aI769
aI518
aI138
aI13
aI287
aI672
aI693
aI950
aI193
aI834
aI197
aI710
aI1223
aI716
aI718
aI592
aI81
aI979
aI598
aI1115
aI1246
aI735
aI866
aI1129
aI878
aI627
atp39
Rp40
sI13
g1
((lp41
I12
atp42
Rp43
sI14
g1
((lp44
I38
aI328
aI77
aI15
aI309
aI118
aI311
aI411
aI341
atp45
Rp46
sI15
g1
((lp47
I1334
aI6
aI38
aI328
aI14
aI118
aI535
atp48
Rp49
sI16
g1
((lp50
I387
aI135
aI393
aI141
aI17
aI404
aI22
aI282
aI414
aI671
aI33
aI519
aI428
aI174
aI50
aI185
aI186
aI31
aI194
aI161
aI72
aI336
aI578
aI85
aI57
aI349
aI351
aI464
aI226
aI995
aI100
aI363
aI368
aI626
aI374
aI122
aI253
atp51
Rp52
sI17
g1
((lp53
I195
aI201
aI106
aI299
aI300
aI174
aI175
aI16
aI305
aI46
aI729
aI186
aI189
aI637
atp54
Rp55
sI18
g1
((lp56
I19
atp57
Rp58
sI19
g1
((lp59
I453
aI10
aI1136
aI18
aI89
aI1178
aI316
atp60
Rp61
sI20
g1
((lp62
I386
aI132
aI136
aI270
aI271
aI144
aI273
aI21
aI280
aI297
aI42
aI303
aI55
aI441
aI204
aI717
aI91
aI95
aI99
aI108
aI497
aI126
atp63
Rp64
sI21
g1
((lp65
I512
aI98
aI196
aI197
aI43
aI207
aI20
aI214
aI279
aI90
aI303
aI92
aI445
aI126
atp66
Rp67
sI22
g1
((lp68
I129
aI130
aI388
aI8
aI137
aI16
aI277
aI278
aI23
aI25
aI28
aI1309
aI158
aI416
aI420
aI293
aI113
aI649
aI71
aI686
aI200
aI311
aI186
aI315
aI61
aI62
aI63
aI704
aI198
aI199
aI968
aI76
aI78
aI463
aI721
aI210
aI84
aI93
aI222
aI98
aI486
aI124
aI618
aI109
aI241
aI115
aI1210
aI447
aI508
aI253
aI127
atp69
Rp70
sI23
g1
((lp71
I22
atp72
Rp73
sI24
g1
((lp74
I388
aI137
aI782
aI277
aI278
aI25
aI153
aI158
aI241
aI311
aI184
aI315
aI61
aI198
aI71
aI76
aI463
aI721
aI210
aI93
aI98
aI113
aI127
atp75
Rp76
sI25
g1
((lp77
I128
aI133
aI198
aI615
aI136
aI9
aI141
aI114
aI659
aI22
aI24
aI121
aI1110
aI29
aI63
atp78
Rp79
sI26
g1
((lp80
I753
aI27
aI956
aI1093
aI1046
atp81
Rp82
sI27
g1
((lp83
I26
atp84
Rp85
sI28
g1
((lp86
I128
aI1249
aI133
aI198
aI136
aI9
aI141
aI114
aI22
aI121
aI63
aI29
aI869
atp87
Rp88
sI29
g1
((lp89
I129
aI388
aI136
aI137
aI782
aI277
aI278
aI25
aI795
aI28
aI158
aI293
aI113
aI71
aI176
aI649
aI315
aI61
aI199
aI200
aI76
aI78
aI463
aI466
aI93
aI222
aI992
aI124
aI109
aI241
aI121
aI508
aI127
atp90
Rp91
sI30
g1
((lp92
I31
atp93
Rp94
sI31
g1
((lp95
I225
aI419
aI865
aI73
aI62
aI1261
aI79
aI16
aI56
aI50
aI84
aI373
aI201
aI184
aI30
aI223
atp96
Rp97
sI32
g1
((lp98
I188
aI33
aI259
aI521
aI918
aI225
aI809
aI338
aI179
aI73
aI951
aI56
aI380
aI382
aI799
atp99
Rp100
sI33
g1
((lp101
I32
aI201
aI16
aI84
aI184
aI62
atp102
Rp103
sI34
g1
((lp104
I35
aI965
aI231
aI328
aI330
aI83
aI953
atp105
Rp106
sI35
g1
((lp107
I34
aI965
aI231
aI330
aI724
aI535
aI953
atp108
Rp109
sI36
g1
((lp110
I288
aI673
aI3
aI37
aI202
aI459
aI812
aI146
aI527
aI624
aI400
aI579
aI656
aI605
atp111
Rp112
sI37
g1
((lp113
I288
aI2
aI36
aI181
aI431
atp114
Rp115
sI38
g1
((lp116
I327
aI773
aI39
aI8
aI490
aI235
aI14
aI15
aI435
aI814
aI311
aI479
atp117
Rp118
sI39
g1
((lp119
I328
aI38
aI535
atp120
Rp121
sI40
g1
((lp122
I512
aI775
aI493
aI1170
aI534
aI920
aI288
aI421
aI41
aI298
aI50
aI570
aI1216
aI321
aI609
aI588
aI335
aI1107
aI725
aI1121
aI357
aI877
aI623
aI881
aI116
aI681
aI635
aI253
atp123
Rp124
sI41
g1
((lp125
I1121
aI356
aI321
aI40
aI297
aI862
atp126
Rp127
sI42
g1
((lp128
I134
aI139
aI526
aI20
aI533
aI407
aI154
aI289
aI1188
aI43
aI430
aI307
aI52
aI151
aI190
aI279
aI450
aI581
aI70
aI455
aI201
aI80
aI339
aI212
aI214
aI92
aI229
aI361
aI501
atp129
Rp130
sI43
g1
((lp131
I386
aI99
aI132
aI273
aI136
aI297
aI42
aI204
aI717
aI270
aI271
aI144
aI497
aI21
aI55
aI280
aI91
aI126
aI95
atp132
Rp133
sI44
g1
((lp134
I673
aI322
aI45
aI1011
aI1141
aI86
aI87
aI665
aI668
aI1054
atp135
Rp136
sI45
g1
((lp137
I802
aI1083
aI644
aI1062
aI871
aI936
aI265
aI1194
aI44
aI1154
aI943
aI1300
aI1209
aI378
aI1307
atp138
Rp139
sI46
g1
((lp140
I320
aI513
aI194
aI195
aI17
aI743
aI456
aI584
aI107
aI290
aI174
aI47
aI305
aI275
aI405
aI56
aI186
aI251
aI525
aI125
atp141
Rp142
sI47
g1
((lp143
I194
aI227
aI106
aI397
aI46
aI174
aI189
atp144
Rp145
sI48
g1
((lp146
I260
aI5
aI155
aI540
aI163
aI169
aI426
aI49
aI183
aI569
aI75
aI453
aI74
aI203
aI591
aI217
aI79
aI481
aI102
aI358
aI500
aI632
aI255
atp147
Rp148
sI49
g1
((lp149
I48
aI4
aI230
aI168
aI10
aI1003
aI975
aI272
aI496
aI95
aI74
aI94
aI255
atp150
Rp151
sI50
g1
((lp152
I387
aI135
aI136
aI393
aI16
aI282
aI414
aI671
aI161
aI423
aI40
aI372
aI519
aI428
aI430
aI51
aI52
aI1077
aI951
aI184
aI185
aI31
aI189
aI449
aI68
aI455
aI201
aI98
aI464
aI594
aI84
aI85
aI57
aI859
aI349
aI94
aI223
aI97
aI226
aI1140
aI230
aI363
aI626
aI884
aI374
aI212
aI253
atp153
Rp154
sI51
g1
((lp155
I188
aI259
aI521
aI870
aI809
aI971
aI50
aI783
aI338
aI179
aI94
aI951
aI153
aI380
aI249
aI60
aI253
aI382
aI799
atp156
Rp157
sI52
g1
((lp158
I1346
aI741
aI42
aI334
aI79
aI50
aI846
aI150
aI153
aI1337
aI94
aI53
atp159
Rp160
sI53
g1
((lp161
I743
aI328
aI617
aI682
aI175
aI178
aI308
aI52
aI191
aI444
aI95
atp162
Rp163
sI54
g1
((lp164
I55
atp165
Rp166
sI55
g1
((lp167
I512
aI98
aI196
aI197
aI54
aI43
aI1122
aI207
aI303
aI20
aI126
aI214
aI279
aI445
aI538
aI1051
aI92
aI90
aI446
atp168
Rp169
sI56
g1
((lp170
I387
aI133
aI135
aI393
aI282
aI414
aI69
aI32
aI161
aI31
aI519
aI428
aI46
aI181
aI184
aI57
aI671
aI574
aI578
aI709
aI336
aI85
aI349
aI351
aI464
aI226
aI228
aI368
aI626
aI374
aI120
atp171
Rp172
sI57
g1
((lp173
I225
aI73
aI874
aI16
aI56
aI50
aI84
aI373
aI694
aI201
aI184
aI954
aI253
aI62
aI223
atp174
Rp175
sI58
g1
((lp176
I59
atp177
Rp178
sI59
g1
((lp179
I68
aI324
aI120
aI100
aI58
aI1275
atp180
Rp181
sI60
g1
((lp182
I51
atp183
Rp184
sI61
g1
((lp185
I133
aI198
aI136
aI9
aI1324
aI141
aI720
aI114
aI22
aI1207
aI24
aI29
aI63
atp186
Rp187
sI62
g1
((lp188
I387
aI135
aI136
aI393
aI141
aI22
aI31
aI33
aI293
aI519
aI428
aI175
aI311
aI57
aI63
aI195
aI201
aI76
aI210
aI85
aI185
aI349
aI351
aI226
aI485
aI363
aI626
aI374
aI122
aI460
aI253
aI1022
atp189
Rp190
sI63
g1
((lp191
I388
aI133
aI137
aI277
aI278
aI25
aI153
aI22
aI668
aI157
aI158
aI416
aI293
aI113
aI28
aI71
aI435
aI315
aI61
aI62
aI199
aI200
aI76
aI78
aI79
aI463
aI93
aI222
aI992
aI124
aI109
aI241
aI114
aI281
aI127
atp192
Rp193
sI64
g1
((lp194
I133
aI65
aI1289
aI522
aI907
aI1294
aI1304
aI156
aI415
aI1313
aI549
aI811
aI688
aI1201
aI440
aI1089
aI964
aI1222
aI1225
aI696
aI595
aI1189
aI480
aI1123
aI613
aI1258
aI1263
aI1016
aI1145
aI634
aI891
aI511
atp195
Rp196
sI65
g1
((lp197
I64
atp198
Rp199
sI66
g1
((lp200
I396
aI655
aI528
aI67
aI424
aI323
aI582
aI458
aI719
aI1104
aI337
aI82
aI473
aI603
aI478
aI352
aI355
aI868
aI616
aI745
aI360
aI383
atp201
Rp202
sI67
g1
((lp203
I66
aI83
aI330
atp204
Rp205
sI68
g1
((lp206
I128
aI768
aI136
aI9
aI283
aI160
aI547
aI551
aI1198
aI50
aI94
aI695
aI59
aI544
aI451
aI324
aI594
aI475
aI350
aI224
aI101
aI1268
aI120
aI253
aI254
atp207
Rp208
sI69
g1
((lp209
I70
aI809
aI951
aI179
aI521
aI56
aI380
aI188
atp210
Rp211
sI70
g1
((lp212
I259
aI69
aI188
aI42
aI971
aI79
aI338
aI918
aI951
aI380
aI382
aI799
atp213
Rp214
sI71
g1
((lp215
I128
aI517
aI198
aI136
aI9
aI141
aI63
aI1105
aI114
aI22
aI121
aI24
aI761
aI1176
aI1192
aI406
aI29
aI133
atp216
Rp217
sI72
g1
((lp218
I225
aI73
aI206
aI16
aI84
aI157
aI223
atp219
Rp220
sI73
g1
((lp221
I32
aI464
aI226
aI387
aI135
aI72
aI31
aI428
aI402
aI368
aI626
aI995
aI181
aI374
aI184
aI57
aI282
aI351
aI349
aI85
atp222
Rp223
sI74
g1
((lp224
I260
aI5
aI136
aI11
aI153
aI155
aI163
aI169
aI48
aI49
aI435
aI436
aI183
aI569
aI453
aI713
aI75
aI96
aI481
aI102
aI233
aI362
aI379
atp225
Rp226
sI75
g1
((lp227
I48
aI4
aI230
aI168
aI10
aI272
aI1049
aI95
aI74
aI255
atp228
Rp229
sI76
g1
((lp230
I133
aI198
aI136
aI9
aI141
aI114
aI22
aI24
aI121
aI1338
aI29
aI62
aI63
atp231
Rp232
sI77
g1
((lp233
I444
aI814
aI399
aI240
aI371
aI14
aI412
atp234
Rp235
sI78
g1
((lp236
I1219
aI310
aI776
aI332
aI879
aI691
aI22
aI121
aI29
aI63
atp237
Rp238
sI79
g1
((lp239
I134
aI139
aI526
aI143
aI533
aI154
aI407
aI282
aI413
aI31
aI289
aI430
aI48
aI307
aI52
aI151
aI190
aI63
aI450
aI581
aI70
aI455
aI80
aI339
aI212
aI229
aI361
aI491
aI501
aI121
atp240
Rp241
sI80
g1
((lp242
I42
aI307
aI94
aI79
atp243
Rp244
sI81
g1
((lp245
I12
atp246
Rp247
sI82
g1
((lp248
I171
aI66
aI83
aI330
atp249
Rp250
sI83
g1
((lp251
I396
aI528
aI323
aI34
aI424
aI67
aI582
aI458
aI719
aI1104
aI337
aI82
aI473
aI603
aI478
aI352
aI868
aI616
aI745
aI490
aI360
aI383
atp252
Rp253
sI84
g1
((lp254
I387
aI135
aI393
aI141
aI22
aI282
aI414
aI671
aI33
aI519
aI428
aI50
aI57
aI31
aI578
aI161
aI72
aI336
aI85
aI349
aI351
aI464
aI226
aI363
aI368
aI626
aI374
aI122
aI253
atp255
Rp256
sI85
g1
((lp257
I225
aI16
aI1320
aI73
aI304
aI56
aI50
aI84
aI373
aI201
aI184
aI253
aI62
aI223
atp258
Rp259
sI86
g1
((lp260
I44
aI87
atp261
Rp262
sI87
g1
((lp263
I44
aI86
atp264
Rp265
sI88
g1
((lp266
I453
aI102
aI167
aI203
aI183
aI89
aI379
aI540
atp267
Rp268
sI89
g1
((lp269
I608
aI4
aI230
aI166
aI103
aI168
aI10
aI395
aI272
aI19
aI213
aI343
aI88
aI541
aI95
atp270
Rp271
sI90
g1
((lp272
I1280
aI99
aI132
aI197
aI55
aI204
aI237
aI144
aI273
aI114
aI436
aI21
aI279
aI344
aI1092
aI91
aI126
atp273
Rp274
sI91
g1
((lp275
I736
aI98
aI197
aI43
aI20
aI214
aI279
aI90
aI92
atp276
Rp277
sI92
g1
((lp278
I128
aI386
aI132
aI136
aI9
aI270
aI271
aI144
aI273
aI21
aI280
aI1060
aI297
aI42
aI432
aI1074
aI55
aI441
aI317
aI204
aI717
aI467
aI91
aI95
aI99
aI108
aI497
aI126
atp279
Rp280
sI93
g1
((lp281
I182
aI114
aI22
aI24
aI121
aI29
aI63
atp282
Rp283
sI94
g1
((lp284
I51
aI5
aI134
aI307
aI139
aI526
aI144
aI533
aI151
aI152
aI68
aI154
aI155
aI289
aI407
aI430
aI49
aI50
aI1075
aI52
aI311
aI315
aI190
aI450
aI580
aI581
aI455
aI591
aI80
aI339
aI212
aI910
aI344
aI229
aI98
aI485
aI230
aI491
aI237
aI253
aI1266
aI501
aI381
atp285
Rp286
sI95
g1
((lp287
I256
aI260
aI5
aI11
aI20
aI279
aI153
aI155
aI453
aI162
aI163
aI167
aI43
aI815
aI177
aI435
aI436
aI53
aI183
aI569
aI75
aI49
aI713
aI203
aI591
aI214
aI89
aI92
aI1247
aI96
aI481
aI102
aI358
aI233
aI362
aI369
aI758
aI379
aI255
atp288
Rp289
sI96
g1
((lp290
I10
aI74
aI230
aI95
atp291
Rp292
sI97
g1
((lp293
I50
atp294
Rp295
sI98
g1
((lp296
I132
aI144
aI273
aI21
aI22
aI279
aI24
aI153
aI303
aI50
aI436
aI182
aI55
aI441
aI1092
aI197
aI204
aI214
aI344
aI91
aI94
aI99
aI237
aI114
aI126
aI638
atp297
Rp298
sI99
g1
((lp299
I512
aI98
aI899
aI196
aI197
aI422
aI138
aI43
aI302
aI207
aI266
aI20
aI214
aI279
aI90
aI92
aI445
aI126
atp300
Rp301
sI100
g1
((lp302
I224
aI544
aI547
aI101
aI551
aI297
aI16
aI594
aI254
aI825
aI59
aI350
atp303
Rp304
sI101
g1
((lp305
I68
aI324
aI1191
aI560
aI913
aI1150
aI120
aI100
aI1310
aI1333
atp306
Rp307
sI102
g1
((lp308
I608
aI4
aI230
aI166
aI103
aI168
aI10
aI395
aI48
aI74
aI213
aI343
aI88
aI541
aI95
atp309
Rp310
sI103
g1
((lp311
I453
aI102
aI167
aI1193
aI203
aI652
aI1327
aI982
aI183
aI89
aI379
aI540
atp312
Rp313
sI104
g1
((lp314
I721
aI937
aI176
aI689
aI885
aI105
aI410
atp315
Rp316
sI105
g1
((lp317
I104
atp318
Rp319
sI106
g1
((lp320
I320
aI513
aI194
aI195
aI709
aI17
aI456
aI201
aI392
aI290
aI584
aI47
aI305
aI107
aI468
aI247
aI354
aI251
aI525
aI125
atp321
Rp322
sI107
g1
((lp323
I194
aI227
aI106
aI300
aI397
aI174
aI46
aI186
aI189
atp324
Rp325
sI108
g1
((lp326
I20
aI92
aI214
atp327
Rp328
sI109
g1
((lp329
I130
aI261
aI6
aI1282
aI143
aI22
aI535
aI284
aI29
aI678
aI434
aI312
aI63
aI705
aI1037
aI341
aI342
aI988
aI110
aI625
aI118
aI121
atp330
Rp331
sI110
g1
((lp332
I109
atp333
Rp334
sI111
g1
((lp335
I1285
aI532
aI1187
aI1321
aI938
aI555
aI559
aI820
aI438
aI1080
aI955
aI957
aI1215
aI454
aI596
aI1241
aI858
aI1116
aI1252
aI232
aI112
aI753
aI246
aI888
atp336
Rp337
sI112
g1
((lp338
I111
atp339
Rp340
sI113
g1
((lp341
I1035
aI29
aI114
aI22
aI24
aI121
aI669
aI63
atp342
Rp343
sI114
g1
((lp344
I129
aI388
aI133
aI649
aI394
aI782
aI277
aI278
aI25
aI153
aI28
aI158
aI416
aI293
aI113
aI71
aI686
aI948
aI137
aI184
aI315
aI61
aI63
aI196
aI198
aI199
aI200
aI714
aI311
aI76
aI463
aI721
aI210
aI341
aI90
aI93
aI222
aI1248
aI98
aI124
aI618
aI241
aI115
aI447
aI508
aI127
atp345
Rp346
sI115
g1
((lp347
I114
aI22
atp348
Rp349
sI116
g1
((lp350
I321
aI356
aI40
aI297
aI170
aI117
aI346
atp351
Rp352
sI117
g1
((lp353
I116
atp354
Rp355
sI118
g1
((lp356
I291
aI773
aI328
aI490
aI235
aI109
aI14
aI15
aI814
aI333
aI535
aI283
aI119
aI479
atp357
Rp358
sI119
g1
((lp359
I118
atp360
Rp361
sI120
g1
((lp362
I224
aI225
aI642
aI547
aI68
aI101
aI673
aI1199
aI254
aI594
aI350
aI544
aI56
aI59
aI768
aI325
atp363
Rp364
sI121
g1
((lp365
I388
aI141
aI782
aI278
aI25
aI281
aI668
aI29
aI158
aI416
aI293
aI28
aI71
aI435
aI948
aI439
aI198
aI199
aI76
aI78
aI79
aI463
aI93
aI222
aI992
aI124
aI109
aI113
aI508
atp366
Rp367
sI122
g1
((lp368
I737
aI1155
aI804
aI1318
aI845
aI16
aI819
aI84
aI184
aI409
aI1306
aI123
aI1212
aI62
aI223
atp369
Rp370
sI123
g1
((lp371
I122
atp372
Rp373
sI124
g1
((lp374
I133
aI198
aI136
aI9
aI141
aI114
aI22
aI121
aI29
aI63
atp375
Rp376
sI125
g1
((lp377
I194
aI106
aI300
aI46
aI186
aI607
atp378
Rp379
sI126
g1
((lp380
I214
aI98
aI99
aI196
aI197
aI43
aI271
aI144
aI273
aI20
aI21
aI502
aI279
aI55
aI90
aI92
aI602
atp381
Rp382
sI127
g1
((lp383
I128
aI133
aI198
aI136
aI9
aI141
aI114
aI22
aI663
aI24
aI29
aI63
atp384
Rp385
sI128
g1
((lp386
I68
aI182
aI71
aI604
aI199
aI28
aI463
aI241
aI25
aI277
aI278
aI201
aI127
aI388
aI315
aI92
aI508
aI158
aI293
atp387
Rp388
sI129
g1
((lp389
I133
aI198
aI136
aI9
aI141
aI114
aI22
aI29
atp390
Rp391
sI130
g1
((lp392
I515
aI900
aI1174
aI529
aI131
aI1301
aI22
aI645
aI1190
aI173
aI1204
aI439
aI1087
aI331
aI311
aI1229
aI1235
aI347
aI864
aI1251
aI1260
aI109
aI1008
aI631
aI1277
atp393
Rp394
sI131
g1
((lp395
I130
atp396
Rp397
sI132
g1
((lp398
I512
aI98
aI196
aI197
aI43
aI1165
aI207
aI817
aI20
aI214
aI279
aI1144
aI985
aI90
aI303
aI92
aI445
aI1238
atp399
Rp400
sI133
g1
((lp401
I129
aI388
aI649
aI277
aI278
aI281
aI25
aI28
aI158
aI416
aI293
aI71
aI182
aI137
aI56
aI315
aI61
aI63
aI64
aI199
aI200
aI76
aI463
aI222
aI225
aI124
aI241
aI114
aI508
aI127
atp402
Rp403
sI134
g1
((lp404
I1228
aI42
aI1164
aI79
aI150
aI153
aI1098
aI94
atp405
Rp406
sI135
g1
((lp407
I225
aI73
aI16
aI56
aI50
aI84
aI373
aI374
aI201
aI184
aI253
aI62
aI223
atp408
Rp409
sI136
g1
((lp410
I129
aI388
aI8
aI137
aI141
aI92
aI20
aI277
aI278
aI279
aI25
aI28
aI29
aI158
aI416
aI675
aI293
aI665
aI43
aI300
aI433
aI50
aI563
aI182
aI649
aI315
aI61
aI62
aI68
aI197
aI198
aI71
aI200
aI201
aI74
aI439
aI76
aI463
aI208
aI466
aI214
aI199
aI604
aI222
aI228
aI124
aI241
aI508
aI127
atp411
Rp412
sI137
g1
((lp413
I133
aI198
aI136
aI9
aI141
aI114
aI22
aI24
aI1020
aI29
aI63
atp414
Rp415
sI138
g1
((lp416
I99
aI12
aI286
atp417
Rp418
sI139
g1
((lp419
I1312
aI42
aI140
aI79
aI147
aI150
aI153
aI94
atp420
Rp421
sI140
g1
((lp422
I139
atp423
Rp424
sI141
g1
((lp425
I129
aI388
aI136
aI137
aI142
aI16
aI277
aI278
aI25
aI795
aI28
aI158
aI416
aI293
aI199
aI1068
aI176
aI315
aI61
aI62
aI447
aI71
aI200
aI585
aI76
aI466
aI84
aI727
aI222
aI992
aI124
aI241
aI121
aI508
aI253
aI127
atp426
Rp427
sI142
g1
((lp428
I141
atp429
Rp430
sI143
g1
((lp431
I435
aI109
aI79
atp432
Rp433
sI144
g1
((lp434
I512
aI98
aI196
aI197
aI43
aI1325
aI207
aI145
aI20
aI94
aI214
aI279
aI90
aI303
aI92
aI445
aI126
atp435
Rp436
sI145
g1
((lp437
I144
atp438
Rp439
sI146
g1
((lp440
I288
aI2
aI36
aI181
aI431
atp441
Rp442
sI147
g1
((lp443
I139
atp444
Rp445
sI150
g1
((lp446
I134
aI139
aI526
aI533
aI407
aI154
aI289
aI169
aI430
aI52
aI566
aI151
aI190
aI450
aI581
aI455
aI339
aI212
aI910
aI229
aI491
aI381
atp447
Rp448
sI151
g1
((lp449
I153
aI42
aI94
aI150
aI79
atp450
Rp451
sI152
g1
((lp452
I153
aI94
aI566
atp453
Rp454
sI153
g1
((lp455
I51
aI134
aI264
aI307
aI139
aI526
aI272
aI24
aI533
aI407
aI152
aI154
aI289
aI430
aI1075
aI52
aI182
aI151
aI190
aI63
aI450
aI580
aI581
aI455
aI74
aI339
aI212
aI95
aI98
aI229
aI230
aI491
aI114
aI501
atp456
Rp457
sI154
g1
((lp458
I201
aI42
aI79
aI150
aI793
aI153
aI94
atp459
Rp460
sI155
g1
((lp461
I960
aI48
aI4
aI230
aI168
aI425
aI10
aI1070
aI272
aI977
aI180
aI1205
aI95
aI220
aI74
aI94
aI255
atp462
Rp463
sI156
g1
((lp464
I64
atp465
Rp466
sI157
g1
((lp467
I72
aI158
aI63
atp468
Rp469
sI158
g1
((lp470
I128
aI133
aI198
aI487
aI136
aI9
aI141
aI29
aI114
aI469
aI22
aI24
aI121
aI157
aI63
atp471
Rp472
sI159
g1
((lp473
I8
aI160
aI291
aI451
aI679
atp474
Rp475
sI160
g1
((lp476
I68
aI6
aI8
aI9
aI1017
aI292
aI159
atp477
Rp478
sI161
g1
((lp479
I225
aI738
aI201
aI16
aI56
aI50
aI84
aI373
aI184
aI1149
aI223
atp480
Rp481
sI162
g1
((lp482
I163
aI4
aI230
aI168
aI10
aI95
atp483
Rp484
sI163
g1
((lp485
I481
aI162
aI4
aI230
aI48
aI168
aI10
aI591
aI272
aI74
aI95
atp486
Rp487
sI164
g1
((lp488
I706
aI165
aI552
aI442
aI546
aI271
aI944
aI723
aI1044
aI502
aI279
aI602
aI997
aI1340
aI250
aI1343
atp489
Rp490
sI165
g1
((lp491
I164
atp492
Rp493
sI166
g1
((lp494
I453
aI102
aI167
aI203
aI183
aI89
aI379
aI540
atp495
Rp496
sI167
g1
((lp497
I608
aI166
aI230
aI103
aI213
aI88
aI541
aI95
atp498
Rp499
sI168
g1
((lp500
I260
aI5
aI264
aI11
aI89
aI155
aI162
aI163
aI497
aI169
aI556
aI49
aI183
aI569
aI203
aI453
aI75
aI591
aI855
aI217
aI481
aI102
aI233
aI362
aI748
aI753
aI754
aI886
aI759
aI379
aI255
atp501
Rp502
sI169
g1
((lp503
I4
aI168
aI10
aI48
aI150
aI217
aI74
atp504
Rp505
sI170
g1
((lp506
I116
atp507
Rp508
sI171
g1
((lp509
I396
aI655
aI528
aI984
aI276
aI925
aI1311
aI417
aI369
aI424
aI172
aI701
aI323
aI197
aI582
aI458
aI719
aI1104
aI337
aI82
aI1226
aI473
aI603
aI478
aI355
aI743
aI616
aI617
aI490
aI494
aI1264
aI360
aI758
aI745
aI252
aI383
atp510
Rp511
sI172
g1
((lp512
I171
atp513
Rp514
sI173
g1
((lp515
I130
atp516
Rp517
sI174
g1
((lp518
I513
aI584
aI525
aI16
aI17
aI402
aI275
aI537
aI175
aI290
aI46
aI47
aI305
aI189
aI320
aI194
aI195
aI709
aI456
aI201
aI465
aI468
aI221
aI352
aI354
aI107
aI251
aI637
atp519
Rp520
sI175
g1
((lp521
I194
aI412
aI837
aI966
aI17
aI648
aI617
aI330
aI1133
aI174
aI177
aI435
aI404
aI53
aI186
aI1052
aI62
aI309
atp522
Rp523
sI176
g1
((lp524
I198
aI104
aI141
aI848
aI401
aI1106
aI376
aI281
aI29
atp525
Rp526
sI177
g1
((lp527
I417
aI418
aI328
aI201
aI554
aI175
aI369
aI178
aI758
aI191
aI444
aI682
aI95
atp528
Rp529
sI178
g1
((lp530
I177
aI435
aI53
aI417
aI617
atp531
Rp532
sI179
g1
((lp533
I32
aI51
aI69
aI918
aI381
atp534
Rp535
sI180
g1
((lp536
I155
atp537
Rp538
sI181
g1
((lp539
I225
aI3
aI37
aI646
aI673
aI73
aI459
aI146
aI400
aI722
aI373
aI56
aI624
aI656
aI605
atp540
Rp541
sI182
g1
((lp542
I128
aI98
aI228
aI133
aI136
aI9
aI618
aI721
aI210
aI948
aI311
aI184
aI153
aI93
atp543
Rp544
sI183
g1
((lp545
I608
aI48
aI4
aI230
aI166
aI103
aI168
aI10
aI395
aI272
aI74
aI213
aI343
aI88
aI541
aI95
atp546
Rp547
sI184
g1
((lp548
I387
aI135
aI393
aI24
aI282
aI414
aI671
aI33
aI519
aI428
aI114
aI50
aI182
aI73
aI56
aI185
aI31
aI578
aI161
aI201
aI336
aI85
aI57
aI349
aI351
aI464
aI226
aI995
aI363
aI368
aI626
aI373
aI374
aI122
aI253
atp549
Rp550
sI185
g1
((lp551
I16
aI184
aI50
aI62
atp552
Rp553
sI186
g1
((lp554
I525
aI16
aI17
aI275
aI22
aI537
aI46
aI175
aI305
aI189
aI320
aI195
aI709
aI456
aI330
aI468
aI601
aI221
aI227
aI743
aI107
aI125
aI374
aI247
aI251
aI637
atp555
Rp556
sI187
g1
((lp557
I188
atp558
Rp559
sI188
g1
((lp560
I32
aI1059
aI803
aI69
aI70
aI339
aI1234
aI51
aI187
aI806
aI381
aI927
atp561
Rp562
sI189
g1
((lp563
I513
aI456
aI392
aI525
aI17
aI404
aI290
aI300
aI174
aI47
aI305
aI50
aI186
aI443
aI574
aI320
aI194
aI195
aI584
aI485
aI1000
aI107
aI244
aI251
aI253
atp564
Rp565
sI190
g1
((lp566
I153
aI42
aI94
aI150
aI79
atp567
Rp568
sI191
g1
((lp569
I177
aI435
aI53
atp570
Rp571
sI192
g1
((lp572
I193
atp573
Rp574
sI193
g1
((lp575
I192
aI12
aI622
aI1115
aI1213
aI286
atp576
Rp577
sI194
g1
((lp578
I513
aI392
aI525
aI16
aI402
aI275
aI46
aI537
aI47
aI290
aI584
aI300
aI174
aI175
aI305
aI189
aI320
aI195
aI456
aI206
aI468
aI221
aI106
aI107
aI125
aI247
aI251
aI637
atp579
Rp580
sI195
g1
((lp581
I384
aI194
aI227
aI106
aI300
aI397
aI46
aI589
aI17
aI1010
aI404
aI174
aI186
aI189
aI62
atp582
Rp583
sI196
g1
((lp584
I512
aI126
aI99
aI132
aI197
aI55
aI237
aI144
aI273
aI114
aI436
aI21
aI279
aI344
aI1092
aI280
atp585
Rp586
sI197
g1
((lp587
I98
aI99
aI132
aI230
aI136
aI12
aI196
aI171
aI204
aI126
aI144
aI273
aI91
aI21
aI55
aI280
aI441
aI90
aI699
aI286
atp588
Rp589
sI198
g1
((lp590
I129
aI388
aI278
aI136
aI9
aI277
aI22
aI24
aI25
aI795
aI28
aI158
aI416
aI293
aI649
aI71
aI176
aI137
aI315
aI61
aI199
aI200
aI76
aI463
aI466
aI222
aI992
aI124
aI241
aI114
aI121
aI508
aI127
atp591
Rp592
sI199
g1
((lp593
I128
aI133
aI198
aI136
aI9
aI1130
aI141
aI1330
aI22
aI901
aI121
aI114
aI63
aI29
aI613
atp594
Rp595
sI200
g1
((lp596
I133
aI198
aI136
aI9
aI141
aI114
aI22
aI29
aI63
atp597
Rp598
sI201
g1
((lp599
I128
aI387
aI135
aI136
aI9
aI17
aI282
aI154
aI414
aI31
aI33
aI372
aI42
aI299
aI300
aI174
aI349
aI177
aI50
aI393
aI184
aI57
aI428
aI671
aI62
aI449
aI578
aI324
aI161
aI336
aI85
aI861
aI734
aI351
aI464
aI226
aI995
aI519
aI106
aI368
aI626
aI1140
aI1269
aI374
aI1018
aI637
atp600
Rp601
sI202
g1
((lp602
I297
aI2
aI36
atp603
Rp604
sI203
g1
((lp605
I608
aI48
aI4
aI230
aI166
aI103
aI168
aI10
aI395
aI272
aI213
aI343
aI88
aI541
aI95
atp606
Rp607
sI204
g1
((lp608
I512
aI98
aI197
aI43
aI205
aI302
aI207
aI20
aI214
aI279
aI856
aI90
aI92
aI445
atp609
Rp610
sI205
g1
((lp611
I204
atp612
Rp613
sI206
g1
((lp614
I72
aI225
aI194
atp615
Rp616
sI207
g1
((lp617
I99
aI132
aI204
aI144
aI273
aI21
aI55
aI344
aI441
atp618
Rp619
sI208
g1
((lp620
I291
aI503
aI209
aI8
aI523
aI365
aI1169
aI451
aI661
aI739
aI267
aI136
aI507
atp621
Rp622
sI209
g1
((lp623
I208
aI504
aI506
aI771
aI905
atp624
Rp625
sI210
g1
((lp626
I1025
aI1034
aI1036
aI1041
aI1043
aI1045
aI22
aI24
aI772
aI1050
aI1057
aI550
aI565
aI1081
aI62
aI1090
aI1096
aI1111
aI600
aI1117
aI1118
aI1124
aI1128
aI620
aI1134
aI114
aI633
aI1152
aI790
aI1172
aI1173
aI664
aI666
aI680
aI686
aI797
aI691
aI182
aI1208
aI697
aI1217
aI1219
aI1224
aI714
aI1230
aI211
aI1239
aI219
aI742
aI234
aI765
aI1284
aI774
aI776
aI778
aI1291
aI1296
aI274
aI788
aI1302
aI1303
aI1308
aI1309
aI798
aI731
aI807
aI810
aI310
aI1341
aI832
aI833
aI835
aI836
aI840
aI332
aI849
aI850
aI851
aI345
aI879
aI370
aI660
aI385
aI394
aI909
aI923
aI420
aI933
aI942
aI948
aI969
aI978
aI989
aI996
aI1001
aI492
atp627
Rp628
sI211
g1
((lp629
I210
atp630
Rp631
sI212
g1
((lp632
I1270
aI42
aI79
aI50
aI150
aI887
aI1240
aI153
aI94
atp633
Rp634
sI213
g1
((lp635
I453
aI102
aI167
aI203
aI1237
aI183
aI89
aI379
aI540
atp636
Rp637
sI214
g1
((lp638
I386
aI132
aI136
aI653
aI270
aI144
aI273
aI21
aI280
aI678
aI297
aI42
aI55
aI441
aI204
aI226
aI717
aI467
aI1112
aI91
aI95
aI98
aI99
aI875
aI108
aI497
aI126
atp639
Rp640
sI217
g1
((lp641
I4
aI614
aI168
aI169
aI10
aI48
aI753
aI553
aI632
aI218
atp642
Rp643
sI218
g1
((lp644
I217
atp645
Rp646
sI219
g1
((lp647
I210
atp648
Rp649
sI220
g1
((lp650
I155
atp651
Rp652
sI221
g1
((lp653
I194
aI1316
aI805
aI174
aI1137
aI404
aI1014
aI824
aI186
aI477
aI1183
atp654
Rp655
sI222
g1
((lp656
I326
aI133
aI198
aI136
aI9
aI141
aI114
aI22
aI121
aI29
aI63
atp657
Rp658
sI223
g1
((lp659
I135
aI393
aI282
aI414
aI31
aI161
aI519
aI428
aI50
aI57
aI72
aI336
aI85
aI349
aI351
aI226
aI995
aI363
aI626
aI374
aI122
aI253
atp660
Rp661
sI224
g1
((lp662
I68
aI651
aI324
aI779
aI120
aI100
atp663
Rp664
sI225
g1
((lp665
I387
aI133
aI135
aI393
aI282
aI414
aI671
aI32
aI161
aI519
aI428
aI181
aI57
aI31
aI578
aI72
aI206
aI336
aI85
aI349
aI351
aI464
aI226
aI995
aI368
aI626
aI374
aI120
atp666
Rp667
sI226
g1
((lp668
I225
aI808
aI73
aI590
aI1007
aI16
aI56
aI50
aI84
aI373
aI214
aI201
aI184
aI1242
aI62
aI223
atp669
Rp670
sI227
g1
((lp671
I320
aI513
aI290
aI195
aI709
aI305
aI456
aI107
aI300
aI269
aI47
aI584
aI186
aI251
atp672
Rp673
sI228
g1
((lp674
I56
aI9
aI136
aI795
aI182
atp675
Rp676
sI229
g1
((lp677
I153
aI42
aI94
aI150
aI79
atp678
Rp679
sI230
g1
((lp680
I256
aI514
aI260
aI5
aI11
aI153
aI155
aI453
aI162
aI163
aI167
aI49
aI50
aI435
aI183
aI569
aI203
aI197
aI713
aI75
aI591
aI89
aI94
aI96
aI481
aI1125
aI102
aI233
aI362
aI379
aI255
atp681
Rp682
sI231
g1
((lp683
I34
aI35
aI965
aI791
atp684
Rp685
sI232
g1
((lp686
I111
atp687
Rp688
sI233
g1
((lp689
I4
aI230
aI168
aI10
aI272
aI74
aI95
atp690
Rp691
sI234
g1
((lp692
I210
atp693
Rp694
sI235
g1
((lp695
I328
aI6
aI38
aI118
aI535
atp696
Rp697
sI236
g1
((lp698
I237
atp699
Rp700
sI237
g1
((lp701
I98
aI196
aI1061
aI586
aI236
aI945
aI531
aI90
aI94
atp702
Rp703
sI238
g1
((lp704
I239
aI351
atp705
Rp706
sI239
g1
((lp707
I238
atp708
Rp709
sI240
g1
((lp710
I77
atp711
Rp712
sI241
g1
((lp713
I128
aI133
aI198
aI136
aI9
aI141
aI114
aI22
aI24
aI29
aI63
atp714
Rp715
sI242
g1
((lp716
I243
atp717
Rp718
sI243
g1
((lp719
I242
aI278
atp720
Rp721
sI244
g1
((lp722
I1024
aI189
aI245
atp723
Rp724
sI245
g1
((lp725
I244
atp726
Rp727
sI246
g1
((lp728
I111
atp729
Rp730
sI247
g1
((lp731
I194
aI106
aI299
aI300
aI465
aI404
aI248
aI186
aI637
atp732
Rp733
sI248
g1
((lp734
I352
aI465
aI925
aI247
atp735
Rp736
sI249
g1
((lp737
I51
atp738
Rp739
sI250
g1
((lp740
I164
atp741
Rp742
sI251
g1
((lp743
I194
aI227
aI106
aI300
aI397
aI174
aI404
aI46
aI186
aI189
atp744
Rp745
sI252
g1
((lp746
I306
aI171
aI330
aI1186
atp747
Rp748
sI253
g1
((lp749
I135
aI906
aI141
aI16
aI22
aI922
aI40
aI50
aI51
aI184
aI57
aI189
aI62
aI575
aI68
aI1094
aI84
aI85
aI349
aI94
aI223
aI366
aI372
aI1147
atp750
Rp751
sI254
g1
((lp752
I120
aI68
aI100
aI324
atp753
Rp754
sI255
g1
((lp755
I256
aI48
aI4
aI5
aI230
aI168
aI10
aI75
aI272
aI49
aI95
aI569
aI155
aI260
atp756
Rp757
sI256
g1
((lp758
I10
aI95
aI230
aI255
atp759
Rp760
sI259
g1
((lp761
I32
aI51
aI381
aI70
atp762
Rp763
sI260
g1
((lp764
I48
aI4
aI230
aI168
aI10
aI1326
aI272
aI296
aI1146
aI95
aI74
aI255
atp765
Rp766
sI261
g1
((lp767
I311
aI262
aI263
aI329
aI1099
aI1132
aI109
aI912
aI403
aI903
aI341
aI439
aI1019
atp768
Rp769
sI262
g1
((lp770
I261
atp771
Rp772
sI263
g1
((lp773
I261
atp774
Rp775
sI264
g1
((lp776
I168
aI153
aI10
aI4
aI1066
atp777
Rp778
sI265
g1
((lp779
I45
atp780
Rp781
sI266
g1
((lp782
I609
aI99
atp783
Rp784
sI267
g1
((lp785
I641
aI770
aI963
aI504
aI1254
aI1163
aI268
aI1058
aI208
aI728
aI916
aI792
aI1305
aI506
atp786
Rp787
sI268
g1
((lp788
I267
atp789
Rp790
sI269
g1
((lp791
I227
aI300
atp792
Rp793
sI270
g1
((lp794
I706
aI1227
aI214
aI43
aI462
aI271
aI882
aI20
aI502
aI279
aI602
aI1295
aI92
aI285
atp795
Rp796
sI271
g1
((lp797
I386
aI875
aI164
aI43
aI270
aI20
aI344
aI92
aI126
atp798
Rp799
sI272
g1
((lp800
I260
aI5
aI10
aI11
aI153
aI155
aI163
aI49
aI435
aI436
aI183
aI203
aI453
aI713
aI75
aI89
aI481
aI358
aI233
aI362
aI379
aI255
atp801
Rp802
sI273
g1
((lp803
I512
aI98
aI196
aI197
aI43
aI207
aI20
aI214
aI279
aI1108
aI90
aI92
aI445
aI126
atp804
Rp805
sI274
g1
((lp806
I210
atp807
Rp808
sI275
g1
((lp809
I194
aI709
aI685
aI174
aI847
aI818
aI404
aI46
aI471
aI186
aI1148
aI574
atp810
Rp811
sI276
g1
((lp812
I171
atp813
Rp814
sI277
g1
((lp815
I128
aI133
aI198
aI136
aI9
aI141
aI114
aI22
aI24
aI29
aI63
atp816
Rp817
sI278
g1
((lp818
I128
aI133
aI198
aI136
aI9
aI141
aI1166
aI29
aI114
aI243
aI22
aI1161
aI24
aI121
aI1021
aI63
atp819
Rp820
sI279
g1
((lp821
I386
aI132
aI136
aI270
aI144
aI273
aI21
aI280
aI164
aI297
aI42
aI55
aI196
aI204
aI717
aI90
aI91
aI95
aI98
aI99
aI497
aI126
atp822
Rp823
sI280
g1
((lp824
I512
aI196
aI197
aI43
aI556
aI302
aI20
aI214
aI279
aI356
aI92
atp825
Rp826
sI281
g1
((lp827
I176
aI121
aI133
aI63
atp828
Rp829
sI282
g1
((lp830
I225
aI73
aI79
aI16
aI56
aI50
aI84
aI373
aI201
aI184
aI223
atp831
Rp832
sI283
g1
((lp833
I68
aI292
aI6
aI535
aI516
aI118
aI825
aI504
aI452
aI506
aI284
atp834
Rp835
sI284
g1
((lp836
I283
aI291
aI109
aI773
atp837
Rp838
sI285
g1
((lp839
I270
atp840
Rp841
sI286
g1
((lp842
I672
aI193
aI834
aI197
aI710
aI769
aI1129
aI138
aI1223
aI716
aI866
aI718
aI592
aI627
aI693
aI979
aI878
aI287
aI1246
aI735
atp843
Rp844
sI287
g1
((lp845
I12
aI286
atp846
Rp847
sI288
g1
((lp848
I624
aI2
aI3
aI36
aI37
aI40
aI459
aI146
aI527
aI848
aI722
aI373
aI656
aI400
aI605
atp849
Rp850
sI289
g1
((lp851
I153
aI42
aI94
aI150
aI79
atp852
Rp853
sI290
g1
((lp854
I194
aI227
aI106
aI300
aI397
aI174
aI404
aI46
aI189
atp855
Rp856
sI291
g1
((lp857
I292
aI6
aI9
aI523
aI208
aI118
aI516
aI506
aI284
aI159
atp858
Rp859
sI292
g1
((lp860
I160
aI1314
aI291
aI711
aI8
aI1262
aI451
aI283
atp861
Rp862
sI293
g1
((lp863
I128
aI133
aI198
aI136
aI9
aI141
aI114
aI22
aI121
aI29
aI62
aI63
atp864
Rp865
sI296
g1
((lp866
I260
atp867
Rp868
sI297
g1
((lp869
I2
aI775
aI20
aI279
aI920
aI924
aI421
aI41
aI298
aI43
aI812
aI570
aI330
aI321
aI579
aI202
aI588
aI335
aI848
aI594
aI725
aI214
aI92
aI609
aI100
aI357
aI877
aI623
aI881
aI116
aI681
aI635
atp870
Rp871
sI298
g1
((lp872
I40
aI297
aI356
aI321
atp873
Rp874
sI299
g1
((lp875
I17
aI201
aI468
aI247
atp876
Rp877
sI300
g1
((lp878
I513
aI392
aI269
aI17
aI290
aI305
aI584
aI301
aI328
aI189
aI320
aI194
aI195
aI709
aI456
aI201
aI525
aI468
aI354
aI227
aI107
aI247
aI136
aI251
aI125
atp879
Rp880
sI301
g1
((lp881
I300
atp882
Rp883
sI302
g1
((lp884
I353
aI99
aI204
aI303
aI432
aI280
atp885
Rp886
sI303
g1
((lp887
I98
aI132
aI302
aI144
aI20
aI21
aI55
aI445
atp888
Rp889
sI304
g1
((lp890
I85
atp891
Rp892
sI305
g1
((lp893
I194
aI227
aI106
aI300
aI397
aI174
aI17
aI914
aI404
aI46
aI186
aI189
aI1279
atp894
Rp895
sI306
g1
((lp896
I252
atp897
Rp898
sI307
g1
((lp899
I361
aI42
aI79
aI80
aI153
aI94
atp900
Rp901
sI308
g1
((lp902
I53
aI309
atp903
Rp904
sI309
g1
((lp905
I743
aI412
aI14
aI399
aI371
aI308
aI757
aI175
aI444
atp906
Rp907
sI310
g1
((lp908
I210
aI78
atp909
Rp910
sI311
g1
((lp911
I130
aI261
aI391
aI1037
aI14
aI22
aI535
aI24
aI38
aI814
aI434
aI182
aI439
aI312
aI62
aI705
aI961
aI328
aI342
aI94
aI678
aI625
aI114
atp912
Rp913
sI312
g1
((lp914
I873
aI1065
aI109
aI1042
aI341
aI311
aI889
atp915
Rp916
sI313
g1
((lp917
I314
aI612
aI754
atp918
Rp919
sI314
g1
((lp920
I313
atp921
Rp922
sI315
g1
((lp923
I128
aI133
aI198
aI136
aI9
aI141
aI114
aI22
aI24
aI828
aI29
aI94
aI63
atp924
Rp925
sI316
g1
((lp926
I19
atp927
Rp928
sI317
g1
((lp929
I92
atp930
Rp931
sI318
g1
((lp932
I319
aI1283
aI499
atp933
Rp934
sI319
g1
((lp935
I1
aI498
aI318
atp936
Rp937
sI320
g1
((lp938
I194
aI227
aI106
aI300
aI397
aI174
aI404
aI46
aI186
aI189
atp939
Rp940
sI321
g1
((lp941
I775
aI534
aI920
aI421
aI881
aI40
aI681
aI298
aI431
aI570
aI322
aI588
aI335
aI721
aI41
aI725
aI609
aI357
aI877
aI623
aI753
aI116
aI297
aI635
aI894
aI895
atp942
Rp943
sI322
g1
((lp944
I321
aI44
atp945
Rp946
sI323
g1
((lp947
I171
aI66
aI83
aI330
atp948
Rp949
sI324
g1
((lp950
I224
aI544
aI547
aI68
aI101
aI201
aI1198
aI594
aI254
aI768
aI59
aI350
aI325
atp951
Rp952
sI325
g1
((lp953
I120
aI324
aI1100
atp954
Rp955
sI326
g1
((lp956
I222
atp957
Rp958
sI327
g1
((lp959
I328
aI38
atp960
Rp961
sI328
g1
((lp962
I34
aI773
aI39
aI8
aI490
aI235
aI300
aI333
aI14
aI15
aI880
aI177
aI435
aI1236
aI53
aI118
aI311
aI327
aI369
aI479
atp963
Rp964
sI329
g1
((lp965
I261
atp966
Rp967
sI330
g1
((lp968
I396
aI655
aI528
aI323
aI252
aI34
aI35
aI424
aI297
aI175
aI186
aI67
aI582
aI458
aI719
aI1104
aI337
aI82
aI473
aI603
aI478
aI352
aI355
aI868
aI360
aI745
aI490
aI616
aI636
aI383
atp969
Rp970
sI331
g1
((lp971
I130
atp972
Rp973
sI332
g1
((lp974
I210
aI78
atp975
Rp976
sI333
g1
((lp977
I643
aI548
aI118
aI6
aI8
aI328
aI435
aI470
aI535
atp978
Rp979
sI334
g1
((lp980
I52
atp981
Rp982
sI335
g1
((lp983
I321
aI356
aI40
aI297
aI1271
aI377
aI1023
atp984
Rp985
sI336
g1
((lp986
I225
aI201
aI16
aI56
aI84
aI184
aI223
atp987
Rp988
sI337
g1
((lp989
I66
aI1203
aI330
aI171
aI367
aI83
aI539
atp990
Rp991
sI338
g1
((lp992
I32
aI70
aI872
aI51
aI1078
aI381
atp993
Rp994
sI339
g1
((lp995
I42
aI79
aI340
aI150
aI153
aI188
aI94
atp996
Rp997
sI340
g1
((lp998
I339
atp999
Rp1000
sI341
g1
((lp1001
I705
aI114
aI261
aI678
aI391
aI970
aI109
aI14
aI625
aI434
aI342
aI312
aI6
aI794
atp1002
Rp1003
sI342
g1
((lp1004
I930
aI439
aI1100
aI109
aI687
aI946
aI341
aI311
atp1005
Rp1006
sI343
g1
((lp1007
I453
aI102
aI203
aI183
aI89
aI540
atp1008
Rp1009
sI344
g1
((lp1010
I98
aI196
aI10
aI556
aI207
aI502
aI356
aI90
aI271
aI602
aI94
atp1011
Rp1012
sI345
g1
((lp1013
I210
atp1014
Rp1015
sI346
g1
((lp1016
I116
atp1017
Rp1018
sI347
g1
((lp1019
I130
atp1020
Rp1021
sI348
g1
((lp1022
I349
atp1023
Rp1024
sI349
g1
((lp1025
I225
aI484
aI1319
aI73
aI16
aI56
aI50
aI84
aI373
aI1142
aI1079
aI184
aI201
aI348
aI253
aI62
aI223
atp1026
Rp1027
sI350
g1
((lp1028
I68
aI324
aI1002
aI120
aI100
aI1119
atp1029
Rp1030
sI351
g1
((lp1031
I225
aI73
aI238
aI16
aI56
aI84
aI373
aI201
aI184
aI62
aI223
atp1032
Rp1033
sI352
g1
((lp1034
I66
aI330
aI174
aI465
aI83
aI823
aI248
atp1035
Rp1036
sI353
g1
((lp1037
I302
atp1038
Rp1039
sI354
g1
((lp1040
I106
aI300
aI174
atp1041
Rp1042
sI355
g1
((lp1043
I66
aI171
aI330
atp1044
Rp1045
sI356
g1
((lp1046
I609
aI4
aI357
aI775
aI623
aI41
aI298
aI588
aI877
aI421
aI335
aI848
aI920
aI116
aI681
aI344
aI570
aI635
aI280
aI881
atp1047
Rp1048
sI357
g1
((lp1049
I40
aI297
aI356
aI321
atp1050
Rp1051
sI358
g1
((lp1052
I48
aI272
aI10
aI95
atp1053
Rp1054
sI359
g1
((lp1055
I360
atp1056
Rp1057
sI360
g1
((lp1058
I66
aI359
aI330
aI171
aI1069
aI83
atp1059
Rp1060
sI361
g1
((lp1061
I42
aI307
aI79
atp1062
Rp1063
sI362
g1
((lp1064
I4
aI230
aI168
aI10
aI272
aI74
aI95
atp1065
Rp1066
sI363
g1
((lp1067
I16
aI50
aI84
aI184
aI62
aI223
atp1068
Rp1069
sI364
g1
((lp1070
I365
atp1071
Rp1072
sI365
g1
((lp1073
I208
aI504
aI506
aI364
aI1135
atp1074
Rp1075
sI366
g1
((lp1076
I253
atp1077
Rp1078
sI367
g1
((lp1079
I337
atp1080
Rp1081
sI368
g1
((lp1082
I225
aI73
aI16
aI56
aI84
aI201
aI184
atp1083
Rp1084
sI369
g1
((lp1085
I328
aI177
aI171
aI757
aI95
atp1086
Rp1087
sI370
g1
((lp1088
I210
atp1089
Rp1090
sI371
g1
((lp1091
I966
aI648
aI617
aI77
aI309
aI411
atp1092
Rp1093
sI372
g1
((lp1094
I201
aI50
aI843
aI675
aI253
atp1095
Rp1096
sI373
g1
((lp1097
I387
aI135
aI393
aI282
aI414
aI671
aI288
aI161
aI519
aI428
aI431
aI181
aI184
aI57
aI31
aI578
aI85
aI349
aI351
aI226
aI995
aI626
aI374
atp1098
Rp1099
sI374
g1
((lp1100
I225
aI1158
aI135
aI73
aI16
aI56
aI50
aI84
aI373
aI201
aI184
aI186
aI62
aI223
atp1101
Rp1102
sI375
g1
((lp1103
I376
aI949
atp1104
Rp1105
sI376
g1
((lp1106
I176
aI1220
aI375
atp1107
Rp1108
sI377
g1
((lp1109
I335
atp1110
Rp1111
sI378
g1
((lp1112
I45
atp1113
Rp1114
sI379
g1
((lp1115
I608
aI4
aI230
aI166
aI103
aI168
aI10
aI272
aI1009
aI213
aI88
aI74
aI95
atp1116
Rp1117
sI380
g1
((lp1118
I32
aI51
aI69
aI70
aI381
atp1119
Rp1120
sI381
g1
((lp1121
I188
aI259
aI521
aI870
aI809
aI338
aI179
aI94
aI150
aI951
aI380
aI382
aI799
atp1122
Rp1123
sI382
g1
((lp1124
I32
aI51
aI381
aI70
atp1125
Rp1126
sI383
g1
((lp1127
I66
aI330
aI171
aI1298
aI83
aI983
atp1128
Rp1129
sI384
g1
((lp1130
I195
atp1131
Rp1132
sI385
g1
((lp1133
I210
atp1134
Rp1135
sI386
g1
((lp1136
I43
aI271
aI20
aI214
aI279
aI92
atp1137
Rp1138
sI387
g1
((lp1139
I225
aI73
aI16
aI56
aI50
aI84
aI373
aI201
aI184
aI62
atp1140
Rp1141
sI388
g1
((lp1142
I128
aI800
aI133
aI198
aI136
aI9
aI1067
aI141
aI114
aI22
aI24
aI121
aI63
aI29
aI959
atp1143
Rp1144
sI391
g1
((lp1145
I1097
aI747
aI341
aI311
aI647
atp1146
Rp1147
sI392
g1
((lp1148
I194
aI106
aI300
aI397
aI472
aI404
aI854
aI952
aI189
atp1149
Rp1150
sI393
g1
((lp1151
I225
aI201
aI16
aI56
aI50
aI84
aI373
aI184
aI692
aI720
aI62
aI223
atp1152
Rp1153
sI394
g1
((lp1154
I114
aI210
atp1155
Rp1156
sI395
g1
((lp1157
I453
aI102
aI203
aI183
aI89
aI730
aI540
atp1158
Rp1159
sI396
g1
((lp1160
I66
aI330
aI171
aI83
aI1113
aI1114
atp1161
Rp1162
sI397
g1
((lp1163
I320
aI513
aI290
aI195
aI305
aI392
aI107
aI525
aI47
aI584
aI251
atp1164
Rp1165
sI398
g1
((lp1166
I399
atp1167
Rp1168
sI399
g1
((lp1169
I1153
aI77
aI398
aI309
aI411
aI1053
atp1170
Rp1171
sI400
g1
((lp1172
I288
aI2
aI36
aI181
aI431
atp1173
Rp1174
sI401
g1
((lp1175
I176
aI721
atp1176
Rp1177
sI402
g1
((lp1178
I73
aI194
aI675
aI404
aI174
atp1179
Rp1180
sI403
g1
((lp1181
I261
atp1182
Rp1183
sI404
g1
((lp1184
I320
aI513
aI290
aI195
aI305
aI456
aI221
aI175
aI16
aI392
aI402
aI275
aI405
aI247
aI537
aI251
aI189
aI637
atp1185
Rp1186
sI405
g1
((lp1187
I404
aI46
aI574
aI709
atp1188
Rp1189
sI406
g1
((lp1190
I71
atp1191
Rp1192
sI407
g1
((lp1193
I42
aI495
aI150
aI408
aI153
aI79
aI94
atp1194
Rp1195
sI408
g1
((lp1196
I407
atp1197
Rp1198
sI409
g1
((lp1199
I122
atp1200
Rp1201
sI410
g1
((lp1202
I104
atp1203
Rp1204
sI411
g1
((lp1205
I744
aI412
aI14
aI399
aI371
aI444
atp1206
Rp1207
sI412
g1
((lp1208
I175
aI411
aI309
aI77
atp1209
Rp1210
sI413
g1
((lp1211
I79
atp1212
Rp1213
sI414
g1
((lp1214
I225
aI897
aI201
aI50
aI16
aI56
aI786
aI84
aI373
aI184
aI223
atp1215
Rp1216
sI415
g1
((lp1217
I64
atp1218
Rp1219
sI416
g1
((lp1220
I133
aI198
aI136
aI9
aI141
aI114
aI22
aI121
aI63
atp1221
Rp1222
sI417
g1
((lp1223
I418
aI743
aI171
aI177
aI178
aI435
atp1224
Rp1225
sI418
g1
((lp1226
I177
aI417
aI617
atp1227
Rp1228
sI419
g1
((lp1229
I31
atp1230
Rp1231
sI420
g1
((lp1232
I210
aI22
atp1233
Rp1234
sI421
g1
((lp1235
I40
aI297
aI356
aI321
atp1236
Rp1237
sI422
g1
((lp1238
I99
atp1239
Rp1240
sI423
g1
((lp1241
I50
atp1242
Rp1243
sI424
g1
((lp1244
I1040
aI171
aI66
aI83
aI330
atp1245
Rp1246
sI425
g1
((lp1247
I155
atp1248
Rp1249
sI426
g1
((lp1250
I640
aI928
aI1323
aI1253
aI427
aI48
aI1073
aI562
aI437
aI921
aI606
aI958
aI639
atp1251
Rp1252
sI427
g1
((lp1253
I426
atp1254
Rp1255
sI428
g1
((lp1256
I1344
aI225
aI740
aI934
aI73
aI62
aI429
aI16
aI56
aI50
aI84
aI373
aI201
aI184
aI1300
aI698
aI926
aI223
atp1257
Rp1258
sI429
g1
((lp1259
I428
atp1260
Rp1261
sI430
g1
((lp1262
I42
aI79
aI50
aI150
aI153
aI94
atp1263
Rp1264
sI431
g1
((lp1265
I321
aI3
aI37
aI646
aI673
aI459
aI146
aI527
aI400
aI722
aI373
aI624
aI656
aI605
atp1266
Rp1267
sI432
g1
((lp1268
I92
aI445
aI302
atp1269
Rp1270
sI433
g1
((lp1271
I136
atp1272
Rp1273
sI434
g1
((lp1274
I439
aI1288
aI780
aI1015
aI524
aI109
aI1101
aI1168
aI593
aI341
aI662
aI311
aI1336
aI1071
aI1167
aI917
atp1275
Rp1276
sI435
g1
((lp1277
I417
aI230
aI38
aI328
aI63
aI74
aI333
aI175
aI272
aI178
aI95
aI121
aI143
aI444
aI682
aI191
atp1278
Rp1279
sI436
g1
((lp1280
I98
aI196
aI712
aI74
aI272
aI90
aI762
aI95
atp1281
Rp1282
sI437
g1
((lp1283
I426
atp1284
Rp1285
sI438
g1
((lp1286
I111
atp1287
Rp1288
sI439
g1
((lp1289
I705
aI130
aI261
aI6
aI136
aI678
aI625
aI434
aI342
aI311
aI121
aI794
atp1290
Rp1291
sI440
g1
((lp1292
I64
atp1293
Rp1294
sI441
g1
((lp1295
I98
aI197
aI207
aI20
aI214
aI92
atp1296
Rp1297
sI442
g1
((lp1298
I164
atp1299
Rp1300
sI443
g1
((lp1301
I189
atp1302
Rp1303
sI444
g1
((lp1304
I77
aI177
aI435
aI53
aI411
aI309
atp1305
Rp1306
sI445
g1
((lp1307
I144
aI99
aI132
aI204
aI303
aI432
aI273
aI21
aI55
aI4
aI602
atp1308
Rp1309
sI446
g1
((lp1310
I55
atp1311
Rp1312
sI447
g1
((lp1313
I448
aI9
aI114
aI141
aI1202
aI22
atp1314
Rp1315
sI448
g1
((lp1316
I447
atp1317
Rp1318
sI449
g1
((lp1319
I201
aI50
atp1320
Rp1321
sI450
g1
((lp1322
I153
aI42
aI94
aI150
aI79
atp1323
Rp1324
sI451
g1
((lp1325
I68
aI452
aI523
aI516
aI208
aI535
aI292
aI159
atp1326
Rp1327
sI452
g1
((lp1328
I8
aI283
aI451
atp1329
Rp1330
sI453
g1
((lp1331
I608
aI48
aI4
aI230
aI166
aI103
aI168
aI10
aI395
aI272
aI19
aI74
aI213
aI343
aI88
aI541
aI95
atp1332
Rp1333
sI454
g1
((lp1334
I111
atp1335
Rp1336
sI455
g1
((lp1337
I1257
aI42
aI79
aI50
aI150
aI153
aI1082
aI94
aI863
atp1338
Rp1339
sI456
g1
((lp1340
I194
aI227
aI106
aI300
aI174
aI404
aI46
aI186
aI189
atp1341
Rp1342
sI457
g1
((lp1343
I458
atp1344
Rp1345
sI458
g1
((lp1346
I66
aI457
aI330
aI171
aI83
aI505
aI1274
aI1086
atp1347
Rp1348
sI459
g1
((lp1349
I288
aI2
aI36
aI181
aI431
atp1350
Rp1351
sI460
g1
((lp1352
I62
atp1353
Rp1354
sI461
g1
((lp1355
I462
atp1356
Rp1357
sI462
g1
((lp1358
I546
aI904
aI764
aI1218
aI270
aI461
aI789
aI760
aI476
aI898
atp1359
Rp1360
sI463
g1
((lp1361
I128
aI133
aI198
aI136
aI9
aI114
aI22
aI24
aI121
aI29
aI63
atp1362
Rp1363
sI464
g1
((lp1364
I225
aI73
aI16
aI56
aI50
aI84
aI201
aI184
atp1365
Rp1366
sI465
g1
((lp1367
I248
aI352
aI247
aI174
aI823
atp1368
Rp1369
sI466
g1
((lp1370
I136
aI29
aI198
aI141
atp1371
Rp1372
sI467
g1
((lp1373
I92
aI214
atp1374
Rp1375
sI468
g1
((lp1376
I194
aI106
aI299
aI300
aI174
aI186
atp1377
Rp1378
sI469
g1
((lp1379
I158
atp1380
Rp1381
sI470
g1
((lp1382
I333
atp1383
Rp1384
sI471
g1
((lp1385
I275
atp1386
Rp1387
sI472
g1
((lp1388
I392
atp1389
Rp1390
sI473
g1
((lp1391
I171
aI66
aI83
aI330
aI719
atp1392
Rp1393
sI474
g1
((lp1394
I475
atp1395
Rp1396
sI475
g1
((lp1397
I993
aI474
aI68
atp1398
Rp1399
sI476
g1
((lp1400
I0
aI545
aI712
aI462
atp1401
Rp1402
sI477
g1
((lp1403
I221
atp1404
Rp1405
sI478
g1
((lp1406
I171
aI66
aI83
aI330
atp1407
Rp1408
sI479
g1
((lp1409
I328
aI6
aI38
aI118
atp1410
Rp1411
sI480
g1
((lp1412
I64
atp1413
Rp1414
sI481
g1
((lp1415
I48
aI163
aI4
aI230
aI168
aI10
aI272
aI74
aI95
atp1416
Rp1417
sI484
g1
((lp1418
I349
atp1419
Rp1420
sI485
g1
((lp1421
I62
aI94
aI189
atp1422
Rp1423
sI486
g1
((lp1424
I22
atp1425
Rp1426
sI487
g1
((lp1427
I158
atp1428
Rp1429
sI490
g1
((lp1430
I6
aI38
aI328
aI330
aI171
aI876
aI83
aI118
aI535
atp1431
Rp1432
sI491
g1
((lp1433
I153
aI94
aI150
aI79
atp1434
Rp1435
sI492
g1
((lp1436
I210
atp1437
Rp1438
sI493
g1
((lp1439
I40
atp1440
Rp1441
sI494
g1
((lp1442
I171
atp1443
Rp1444
sI495
g1
((lp1445
I407
atp1446
Rp1447
sI496
g1
((lp1448
I49
atp1449
Rp1450
sI497
g1
((lp1451
I4
aI168
aI43
aI20
aI214
aI279
aI92
aI829
atp1452
Rp1453
sI498
g1
((lp1454
I499
aI654
aI319
atp1455
Rp1456
sI499
g1
((lp1457
I498
aI1171
aI318
atp1458
Rp1459
sI500
g1
((lp1460
I48
atp1461
Rp1462
sI501
g1
((lp1463
I153
aI42
aI94
aI79
atp1464
Rp1465
sI502
g1
((lp1466
I344
aI164
aI126
aI270
aI717
atp1467
Rp1468
sI503
g1
((lp1469
I208
aI504
atp1470
Rp1471
sI504
g1
((lp1472
I523
aI267
aI365
aI209
aI739
aI661
aI503
aI283
aI507
atp1473
Rp1474
sI505
g1
((lp1475
I458
atp1476
Rp1477
sI506
g1
((lp1478
I291
aI8
aI267
aI365
aI209
aI283
aI507
atp1479
Rp1480
sI507
g1
((lp1481
I208
aI504
aI506
atp1482
Rp1483
sI508
g1
((lp1484
I128
aI133
aI198
aI136
aI9
aI141
aI114
aI22
aI121
aI29
atp1485
Rp1486
sI509
g1
((lp1487
I628
aI1027
aI636
aI510
aI1233
atp1488
Rp1489
sI510
g1
((lp1490
I509
atp1491
Rp1492
sI511
g1
((lp1493
I64
aI542
atp1494
Rp1495
sI512
g1
((lp1496
I99
aI132
aI40
aI204
aI144
aI273
aI21
aI55
aI280
aI196
atp1497
Rp1498
sI513
g1
((lp1499
I194
aI227
aI106
aI300
aI397
aI174
aI404
aI46
aI189
atp1500
Rp1501
sI514
g1
((lp1502
I230
atp1503
Rp1504
sI515
g1
((lp1505
I130
atp1506
Rp1507
sI516
g1
((lp1508
I8
aI283
aI291
aI451
atp1509
Rp1510
sI517
g1
((lp1511
I71
atp1512
Rp1513
sI518
g1
((lp1514
I12
atp1515
Rp1516
sI519
g1
((lp1517
I225
aI1126
aI1063
aI520
aI201
aI976
aI56
aI50
aI787
aI84
aI373
aI1335
aI184
aI223
aI62
aI16
atp1518
Rp1519
sI520
g1
((lp1520
I519
atp1521
Rp1522
sI521
g1
((lp1523
I32
aI69
aI809
aI51
aI918
aI381
atp1524
Rp1525
sI522
g1
((lp1526
I64
atp1527
Rp1528
sI523
g1
((lp1529
I8
aI208
aI291
aI504
aI451
atp1530
Rp1531
sI524
g1
((lp1532
I434
atp1533
Rp1534
sI525
g1
((lp1535
I194
aI106
aI300
aI397
aI46
aI174
aI186
aI189
atp1536
Rp1537
sI526
g1
((lp1538
I153
aI42
aI94
aI150
aI79
atp1539
Rp1540
sI527
g1
((lp1541
I288
aI2
aI36
aI431
atp1542
Rp1543
sI528
g1
((lp1544
I171
aI66
aI83
aI330
atp1545
Rp1546
sI529
g1
((lp1547
I130
atp1548
Rp1549
sI530
g1
((lp1550
I945
aI586
aI531
aI556
aI1061
atp1551
Rp1552
sI531
g1
((lp1553
I530
aI237
aI638
atp1554
Rp1555
sI532
g1
((lp1556
I111
atp1557
Rp1558
sI533
g1
((lp1559
I1345
aI42
aI972
aI79
aI1072
aI1297
aI690
aI1267
aI670
aI150
aI153
aI94
atp1560
Rp1561
sI534
g1
((lp1562
I40
aI321
aI589
aI726
aI1293
atp1563
Rp1564
sI535
g1
((lp1565
I35
aI773
aI39
aI8
aI490
aI235
aI333
aI109
aI451
aI118
aI311
aI283
aI15
atp1566
Rp1567
sI536
g1
((lp1568
I537
atp1569
Rp1570
sI537
g1
((lp1571
I1028
aI902
aI650
aI404
aI1175
aI536
aI1179
aI1180
aI601
aI674
aI174
aI816
aI186
aI194
aI587
aI597
aI729
aI1250
aI1127
aI1131
aI1265
aI1276
atp1572
Rp1573
sI538
g1
((lp1574
I55
atp1575
Rp1576
sI539
g1
((lp1577
I337
atp1578
Rp1579
sI540
g1
((lp1580
I608
aI166
aI103
aI395
aI48
aI213
aI343
aI88
aI541
atp1581
Rp1582
sI541
g1
((lp1583
I453
aI102
aI167
aI203
aI183
aI89
aI540
atp1584
Rp1585
sI542
g1
((lp1586
I511
atp1587
Rp1588
sI543
g1
((lp1589
I544
atp1590
Rp1591
sI544
g1
((lp1592
I68
aI867
aI324
aI756
aI120
aI100
aI543
aI1076
atp1593
Rp1594
sI545
g1
((lp1595
I546
aI476
aI829
atp1596
Rp1597
sI546
g1
((lp1598
I545
aI898
aI164
aI875
aI462
aI762
atp1599
Rp1600
sI547
g1
((lp1601
I120
aI1200
aI100
aI68
aI324
atp1602
Rp1603
sI548
g1
((lp1604
I333
atp1605
Rp1606
sI549
g1
((lp1607
I64
aI604
atp1608
Rp1609
sI550
g1
((lp1610
I210
atp1611
Rp1612
sI551
g1
((lp1613
I68
aI100
atp1614
Rp1615
sI552
g1
((lp1616
I164
atp1617
Rp1618
sI553
g1
((lp1619
I217
atp1620
Rp1621
sI554
g1
((lp1622
I177
atp1623
Rp1624
sI555
g1
((lp1625
I111
atp1626
Rp1627
sI556
g1
((lp1628
I4
aI168
aI10
aI280
aI530
aI344
atp1629
Rp1630
sI559
g1
((lp1631
I111
atp1632
Rp1633
sI560
g1
((lp1634
I101
atp1635
Rp1636
sI561
g1
((lp1637
I928
aI921
aI562
aI606
atp1638
Rp1639
sI562
g1
((lp1640
I561
aI426
atp1641
Rp1642
sI563
g1
((lp1643
I136
aI9
atp1644
Rp1645
sI564
g1
((lp1646
I565
atp1647
Rp1648
sI565
g1
((lp1649
I210
aI564
atp1650
Rp1651
sI566
g1
((lp1652
I152
aI150
atp1653
Rp1654
sI567
g1
((lp1655
I568
aI760
atp1656
Rp1657
sI568
g1
((lp1658
I829
aI567
atp1659
Rp1660
sI569
g1
((lp1661
I4
aI230
aI168
aI10
aI48
aI95
aI74
aI1278
aI255
atp1662
Rp1663
sI570
g1
((lp1664
I40
aI297
aI356
aI321
atp1665
Rp1666
sI574
g1
((lp1667
I743
aI275
aI405
aI599
aI56
aI189
atp1668
Rp1669
sI575
g1
((lp1670
I253
atp1671
Rp1672
sI576
g1
((lp1673
I0
aI577
aI712
atp1674
Rp1675
sI577
g1
((lp1676
I576
atp1677
Rp1678
sI578
g1
((lp1679
I225
aI201
aI16
aI56
aI84
aI373
aI184
atp1680
Rp1681
sI579
g1
((lp1682
I297
aI36
atp1683
Rp1684
sI580
g1
((lp1685
I153
aI94
atp1686
Rp1687
sI581
g1
((lp1688
I153
aI42
aI94
aI150
aI79
atp1689
Rp1690
sI582
g1
((lp1691
I66
aI715
aI583
aI330
aI171
aI83
aI1342
atp1692
Rp1693
sI583
g1
((lp1694
I715
aI582
atp1695
Rp1696
sI584
g1
((lp1697
I194
aI227
aI106
aI300
aI397
aI174
aI46
aI189
atp1698
Rp1699
sI585
g1
((lp1700
I141
atp1701
Rp1702
sI586
g1
((lp1703
I530
aI237
atp1704
Rp1705
sI587
g1
((lp1706
I537
atp1707
Rp1708
sI588
g1
((lp1709
I321
aI994
aI356
aI40
aI297
aI755
atp1710
Rp1711
sI589
g1
((lp1712
I195
aI534
atp1713
Rp1714
sI590
g1
((lp1715
I226
atp1716
Rp1717
sI591
g1
((lp1718
I1026
aI163
aI4
aI230
aI168
aI10
aI48
aI94
aI95
atp1719
Rp1720
sI592
g1
((lp1721
I12
aI286
atp1722
Rp1723
sI593
g1
((lp1724
I434
atp1725
Rp1726
sI594
g1
((lp1727
I68
aI324
aI297
aI50
aI120
aI100
atp1728
Rp1729
sI595
g1
((lp1730
I64
atp1731
Rp1732
sI596
g1
((lp1733
I111
atp1734
Rp1735
sI597
g1
((lp1736
I537
atp1737
Rp1738
sI598
g1
((lp1739
I12
atp1740
Rp1741
sI599
g1
((lp1742
I709
aI574
atp1743
Rp1744
sI600
g1
((lp1745
I210
atp1746
Rp1747
sI601
g1
((lp1748
I537
aI186
atp1749
Rp1750
sI602
g1
((lp1751
I164
aI10
aI270
aI344
aI445
aI126
atp1752
Rp1753
sI603
g1
((lp1754
I66
aI330
aI171
aI83
aI1245
aI1214
atp1755
Rp1756
sI604
g1
((lp1757
I128
aI9
aI136
aI549
atp1758
Rp1759
sI605
g1
((lp1760
I288
aI2
aI36
aI181
aI431
atp1761
Rp1762
sI606
g1
((lp1763
I561
aI426
atp1764
Rp1765
sI607
g1
((lp1766
I125
atp1767
Rp1768
sI608
g1
((lp1769
I453
aI102
aI167
aI203
aI183
aI89
aI379
aI540
atp1770
Rp1771
sI609
g1
((lp1772
I321
aI610
aI356
aI40
aI297
aI266
atp1773
Rp1774
sI610
g1
((lp1775
I609
atp1776
Rp1777
sI611
g1
((lp1778
I612
atp1779
Rp1780
sI612
g1
((lp1781
I313
aI611
atp1782
Rp1783
sI613
g1
((lp1784
I64
aI199
atp1785
Rp1786
sI614
g1
((lp1787
I217
atp1788
Rp1789
sI615
g1
((lp1790
I25
atp1791
Rp1792
sI616
g1
((lp1793
I171
aI66
aI83
aI330
atp1794
Rp1795
sI617
g1
((lp1796
I418
aI171
aI175
aI178
aI371
aI53
atp1797
Rp1798
sI618
g1
((lp1799
I801
aI676
aI182
aI619
aI941
aI114
aI915
aI22
aI1151
atp1800
Rp1801
sI619
g1
((lp1802
I618
atp1803
Rp1804
sI620
g1
((lp1805
I210
atp1806
Rp1807
sI621
g1
((lp1808
I622
atp1809
Rp1810
sI622
g1
((lp1811
I883
aI193
aI1115
aI621
aI1213
atp1812
Rp1813
sI623
g1
((lp1814
I40
aI297
aI356
aI321
atp1815
Rp1816
sI624
g1
((lp1817
I288
aI2
aI36
aI181
aI431
atp1818
Rp1819
sI625
g1
((lp1820
I311
aI109
aI341
aI439
atp1821
Rp1822
sI626
g1
((lp1823
I225
aI73
aI16
aI56
aI50
aI84
aI373
aI201
aI184
aI62
aI223
atp1824
Rp1825
sI627
g1
((lp1826
I12
aI286
atp1827
Rp1828
sI628
g1
((lp1829
I509
atp1830
Rp1831
sI629
g1
((lp1832
I630
atp1833
Rp1834
sI630
g1
((lp1835
I764
aI629
atp1836
Rp1837
sI631
g1
((lp1838
I130
atp1839
Rp1840
sI632
g1
((lp1841
I48
aI217
aI1322
aI1232
aI853
atp1842
Rp1843
sI633
g1
((lp1844
I210
atp1845
Rp1846
sI634
g1
((lp1847
I64
atp1848
Rp1849
sI635
g1
((lp1850
I40
aI297
aI1139
aI356
aI321
atp1851
Rp1852
sI636
g1
((lp1853
I330
aI509
atp1854
Rp1855
sI637
g1
((lp1856
I194
aI201
aI174
aI17
aI404
aI247
aI186
atp1857
Rp1858
sI638
g1
((lp1859
I98
aI531
atp1860
Rp1861
sI639
g1
((lp1862
I426
atp1863
Rp1864
sI640
g1
((lp1865
I426
atp1866
Rp1867
sI641
g1
((lp1868
I267
atp1869
Rp1870
sI642
g1
((lp1871
I120
atp1872
Rp1873
sI643
g1
((lp1874
I333
atp1875
Rp1876
sI644
g1
((lp1877
I45
atp1878
Rp1879
sI645
g1
((lp1880
I130
atp1881
Rp1882
sI646
g1
((lp1883
I181
aI431
atp1884
Rp1885
sI647
g1
((lp1886
I391
atp1887
Rp1888
sI648
g1
((lp1889
I371
aI175
atp1890
Rp1891
sI649
g1
((lp1892
I133
aI198
aI136
aI9
aI114
aI22
aI29
atp1893
Rp1894
sI650
g1
((lp1895
I537
atp1896
Rp1897
sI651
g1
((lp1898
I224
atp1899
Rp1900
sI652
g1
((lp1901
I103
atp1902
Rp1903
sI653
g1
((lp1904
I214
atp1905
Rp1906
sI654
g1
((lp1907
I498
atp1908
Rp1909
sI655
g1
((lp1910
I66
aI171
aI330
atp1911
Rp1912
sI656
g1
((lp1913
I288
aI2
aI36
aI181
aI431
atp1914
Rp1915
sI659
g1
((lp1916
I25
atp1917
Rp1918
sI660
g1
((lp1919
I210
atp1920
Rp1921
sI661
g1
((lp1922
I208
aI504
atp1923
Rp1924
sI662
g1
((lp1925
I434
atp1926
Rp1927
sI663
g1
((lp1928
I127
atp1929
Rp1930
sI664
g1
((lp1931
I210
atp1932
Rp1933
sI665
g1
((lp1934
I136
aI44
aI1292
atp1935
Rp1936
sI666
g1
((lp1937
I210
atp1938
Rp1939
sI667
g1
((lp1940
I668
atp1941
Rp1942
sI668
g1
((lp1943
I121
aI667
aI44
aI63
atp1944
Rp1945
sI669
g1
((lp1946
I113
atp1947
Rp1948
sI670
g1
((lp1949
I533
atp1950
Rp1951
sI671
g1
((lp1952
I225
aI201
aI16
aI56
aI50
aI84
aI373
aI184
atp1953
Rp1954
sI672
g1
((lp1955
I681
aI12
aI286
atp1956
Rp1957
sI673
g1
((lp1958
I2
aI36
aI44
aI431
aI848
aI181
aI120
atp1959
Rp1960
sI674
g1
((lp1961
I537
atp1962
Rp1963
sI675
g1
((lp1964
I136
aI402
aI372
atp1965
Rp1966
sI676
g1
((lp1967
I618
atp1968
Rp1969
sI677
g1
((lp1970
I678
atp1971
Rp1972
sI678
g1
((lp1973
I677
aI311
aI109
aI341
aI214
aI439
atp1974
Rp1975
sI679
g1
((lp1976
I159
aI1095
atp1977
Rp1978
sI680
g1
((lp1979
I210
atp1980
Rp1981
sI681
g1
((lp1982
I672
aI321
aI356
aI1185
aI40
aI297
aI1004
aI890
atp1983
Rp1984
sI682
g1
((lp1985
I177
aI435
aI53
atp1986
Rp1987
sI685
g1
((lp1988
I275
atp1989
Rp1990
sI686
g1
((lp1991
I114
aI210
aI22
atp1992
Rp1993
sI687
g1
((lp1994
I342
atp1995
Rp1996
sI688
g1
((lp1997
I64
atp1998
Rp1999
sI689
g1
((lp2000
I104
atp2001
Rp2002
sI690
g1
((lp2003
I533
atp2004
Rp2005
sI691
g1
((lp2006
I210
aI78
atp2007
Rp2008
sI692
g1
((lp2009
I393
atp2010
Rp2011
sI693
g1
((lp2012
I12
aI286
atp2013
Rp2014
sI694
g1
((lp2015
I57
atp2016
Rp2017
sI695
g1
((lp2018
I68
atp2019
Rp2020
sI696
g1
((lp2021
I64
atp2022
Rp2023
sI697
g1
((lp2024
I210
atp2025
Rp2026
sI698
g1
((lp2027
I428
atp2028
Rp2029
sI699
g1
((lp2030
I1129
aI197
aI878
atp2031
Rp2032
sI701
g1
((lp2033
I171
atp2034
Rp2035
sI702
g1
((lp2036
I703
aI813
aI935
atp2037
Rp2038
sI703
g1
((lp2039
I702
atp2040
Rp2041
sI704
g1
((lp2042
I22
atp2043
Rp2044
sI705
g1
((lp2045
I311
aI109
aI341
aI439
atp2046
Rp2047
sI706
g1
((lp2048
I875
aI164
aI717
aI270
atp2049
Rp2050
sI709
g1
((lp2051
I227
aI743
aI106
aI300
aI174
aI275
aI405
aI599
aI56
aI186
atp2052
Rp2053
sI710
g1
((lp2054
I12
aI286
atp2055
Rp2056
sI711
g1
((lp2057
I292
atp2058
Rp2059
sI712
g1
((lp2060
I576
aI1
aI436
aI476
atp2061
Rp2062
sI713
g1
((lp2063
I272
aI74
aI230
aI95
atp2064
Rp2065
sI714
g1
((lp2066
I114
aI210
atp2067
Rp2068
sI715
g1
((lp2069
I582
aI583
atp2070
Rp2071
sI716
g1
((lp2072
I12
aI286
atp2073
Rp2074
sI717
g1
((lp2075
I706
aI214
aI43
aI20
aI502
aI279
aI92
atp2076
Rp2077
sI718
g1
((lp2078
I12
aI286
atp2079
Rp2080
sI719
g1
((lp2081
I171
aI473
aI66
aI83
aI330
atp2082
Rp2083
sI720
g1
((lp2084
I393
aI61
atp2085
Rp2086
sI721
g1
((lp2087
I321
aI182
aI104
aI114
aI401
aI1106
aI22
aI24
aI1273
atp2088
Rp2089
sI722
g1
((lp2090
I288
aI2
aI181
aI431
atp2091
Rp2092
sI723
g1
((lp2093
I164
atp2094
Rp2095
sI724
g1
((lp2096
I35
aI781
atp2097
Rp2098
sI725
g1
((lp2099
I40
aI297
aI321
atp2100
Rp2101
sI726
g1
((lp2102
I534
atp2103
Rp2104
sI727
g1
((lp2105
I141
atp2106
Rp2107
sI728
g1
((lp2108
I267
atp2109
Rp2110
sI729
g1
((lp2111
I17
aI537
atp2112
Rp2113
sI730
g1
((lp2114
I395
atp2115
Rp2116
sI731
g1
((lp2117
I210
atp2118
Rp2119
sI734
g1
((lp2120
I201
atp2121
Rp2122
sI735
g1
((lp2123
I12
aI286
atp2124
Rp2125
sI736
g1
((lp2126
I91
atp2127
Rp2128
sI737
g1
((lp2129
I122
atp2130
Rp2131
sI738
g1
((lp2132
I161
atp2133
Rp2134
sI739
g1
((lp2135
I208
aI504
atp2136
Rp2137
sI740
g1
((lp2138
I428
atp2139
Rp2140
sI741
g1
((lp2141
I52
atp2142
Rp2143
sI742
g1
((lp2144
I210
atp2145
Rp2146
sI743
g1
((lp2147
I417
aI709
aI744
aI171
aI46
aI53
aI186
aI574
aI309
atp2148
Rp2149
sI744
g1
((lp2150
I411
aI757
aI743
atp2151
Rp2152
sI745
g1
((lp2153
I66
aI1317
aI746
aI171
aI908
aI83
aI1143
aI1177
aI1211
aI330
atp2154
Rp2155
sI746
g1
((lp2156
I745
atp2157
Rp2158
sI747
g1
((lp2159
I391
atp2160
Rp2161
sI748
g1
((lp2162
I168
aI10
aI4
atp2163
Rp2164
sI753
g1
((lp2165
I321
aI168
aI111
aI759
aI217
aI26
atp2166
Rp2167
sI754
g1
((lp2168
I168
aI313
aI10
aI4
atp2169
Rp2170
sI755
g1
((lp2171
I588
atp2172
Rp2173
sI756
g1
((lp2174
I544
atp2175
Rp2176
sI757
g1
((lp2177
I744
aI369
aI309
aI758
atp2178
Rp2179
sI758
g1
((lp2180
I967
aI171
aI177
aI757
aI827
aI95
atp2181
Rp2182
sI759
g1
((lp2183
I168
aI753
aI10
aI4
atp2184
Rp2185
sI760
g1
((lp2186
I462
aI567
atp2187
Rp2188
sI761
g1
((lp2189
I71
atp2190
Rp2191
sI762
g1
((lp2192
I10
aI436
aI546
aI829
atp2193
Rp2194
sI763
g1
((lp2195
I764
atp2196
Rp2197
sI764
g1
((lp2198
I763
aI462
aI630
atp2199
Rp2200
sI765
g1
((lp2201
I210
atp2202
Rp2203
sI768
g1
((lp2204
I120
aI68
aI324
atp2205
Rp2206
sI769
g1
((lp2207
I12
aI286
atp2208
Rp2209
sI770
g1
((lp2210
I267
atp2211
Rp2212
sI771
g1
((lp2213
I209
atp2214
Rp2215
sI772
g1
((lp2216
I210
atp2217
Rp2218
sI773
g1
((lp2219
I6
aI38
aI328
aI118
aI535
aI284
atp2220
Rp2221
sI774
g1
((lp2222
I210
atp2223
Rp2224
sI775
g1
((lp2225
I40
aI297
aI356
aI321
atp2226
Rp2227
sI776
g1
((lp2228
I210
aI78
atp2229
Rp2230
sI777
g1
((lp2231
I9
atp2232
Rp2233
sI778
g1
((lp2234
I210
atp2235
Rp2236
sI779
g1
((lp2237
I224
atp2238
Rp2239
sI780
g1
((lp2240
I434
atp2241
Rp2242
sI781
g1
((lp2243
I724
atp2244
Rp2245
sI782
g1
((lp2246
I24
aI121
aI114
aI29
atp2247
Rp2248
sI783
g1
((lp2249
I51
atp2250
Rp2251
sI786
g1
((lp2252
I414
atp2253
Rp2254
sI787
g1
((lp2255
I519
atp2256
Rp2257
sI788
g1
((lp2258
I210
atp2259
Rp2260
sI789
g1
((lp2261
I829
aI462
atp2262
Rp2263
sI790
g1
((lp2264
I210
atp2265
Rp2266
sI791
g1
((lp2267
I953
aI1162
aI231
atp2268
Rp2269
sI792
g1
((lp2270
I267
atp2271
Rp2272
sI793
g1
((lp2273
I154
atp2274
Rp2275
sI794
g1
((lp2276
I341
aI439
atp2277
Rp2278
sI795
g1
((lp2279
I228
aI29
aI198
aI141
atp2280
Rp2281
sI797
g1
((lp2282
I210
atp2283
Rp2284
sI798
g1
((lp2285
I210
atp2286
Rp2287
sI799
g1
((lp2288
I32
aI51
aI381
aI70
atp2289
Rp2290
sI800
g1
((lp2291
I388
atp2292
Rp2293
sI801
g1
((lp2294
I618
atp2295
Rp2296
sI802
g1
((lp2297
I45
atp2298
Rp2299
sI803
g1
((lp2300
I188
atp2301
Rp2302
sI804
g1
((lp2303
I122
atp2304
Rp2305
sI805
g1
((lp2306
I221
atp2307
Rp2308
sI806
g1
((lp2309
I188
atp2310
Rp2311
sI807
g1
((lp2312
I210
atp2313
Rp2314
sI808
g1
((lp2315
I226
atp2316
Rp2317
sI809
g1
((lp2318
I32
aI69
aI521
aI51
aI918
aI381
atp2319
Rp2320
sI810
g1
((lp2321
I210
atp2322
Rp2323
sI811
g1
((lp2324
I64
atp2325
Rp2326
sI812
g1
((lp2327
I297
aI36
atp2328
Rp2329
sI813
g1
((lp2330
I702
atp2331
Rp2332
sI814
g1
((lp2333
I6
aI77
aI38
aI118
aI311
atp2334
Rp2335
sI815
g1
((lp2336
I95
atp2337
Rp2338
sI816
g1
((lp2339
I537
atp2340
Rp2341
sI817
g1
((lp2342
I132
atp2343
Rp2344
sI818
g1
((lp2345
I275
atp2346
Rp2347
sI819
g1
((lp2348
I122
atp2349
Rp2350
sI820
g1
((lp2351
I111
atp2352
Rp2353
sI823
g1
((lp2354
I352
aI465
aI1047
atp2355
Rp2356
sI824
g1
((lp2357
I221
atp2358
Rp2359
sI825
g1
((lp2360
I1272
aI9
aI283
aI100
atp2361
Rp2362
sI826
g1
((lp2363
I827
aI1299
aI967
atp2364
Rp2365
sI827
g1
((lp2366
I826
aI758
atp2367
Rp2368
sI828
g1
((lp2369
I315
atp2370
Rp2371
sI829
g1
((lp2372
I545
aI898
aI497
aI789
aI919
aI568
aI762
atp2373
Rp2374
sI832
g1
((lp2375
I210
atp2376
Rp2377
sI833
g1
((lp2378
I210
atp2379
Rp2380
sI834
g1
((lp2381
I12
aI286
atp2382
Rp2383
sI835
g1
((lp2384
I210
atp2385
Rp2386
sI836
g1
((lp2387
I210
atp2388
Rp2389
sI837
g1
((lp2390
I175
atp2391
Rp2392
sI840
g1
((lp2393
I210
atp2394
Rp2395
sI843
g1
((lp2396
I372
aI844
atp2397
Rp2398
sI844
g1
((lp2399
I843
atp2400
Rp2401
sI845
g1
((lp2402
I122
atp2403
Rp2404
sI846
g1
((lp2405
I52
atp2406
Rp2407
sI847
g1
((lp2408
I275
atp2409
Rp2410
sI848
g1
((lp2411
I176
aI288
aI356
aI297
aI673
atp2412
Rp2413
sI849
g1
((lp2414
I210
atp2415
Rp2416
sI850
g1
((lp2417
I210
atp2418
Rp2419
sI851
g1
((lp2420
I210
atp2421
Rp2422
sI853
g1
((lp2423
I632
atp2424
Rp2425
sI854
g1
((lp2426
I392
atp2427
Rp2428
sI855
g1
((lp2429
I168
aI10
aI4
atp2430
Rp2431
sI856
g1
((lp2432
I204
atp2433
Rp2434
sI858
g1
((lp2435
I111
atp2436
Rp2437
sI859
g1
((lp2438
I50
atp2439
Rp2440
sI861
g1
((lp2441
I201
atp2442
Rp2443
sI862
g1
((lp2444
I41
atp2445
Rp2446
sI863
g1
((lp2447
I455
atp2448
Rp2449
sI864
g1
((lp2450
I130
atp2451
Rp2452
sI865
g1
((lp2453
I31
atp2454
Rp2455
sI866
g1
((lp2456
I12
aI286
atp2457
Rp2458
sI867
g1
((lp2459
I544
atp2460
Rp2461
sI868
g1
((lp2462
I66
aI83
aI330
atp2463
Rp2464
sI869
g1
((lp2465
I28
atp2466
Rp2467
sI870
g1
((lp2468
I51
aI381
atp2469
Rp2470
sI871
g1
((lp2471
I45
atp2472
Rp2473
sI872
g1
((lp2474
I338
atp2475
Rp2476
sI873
g1
((lp2477
I312
atp2478
Rp2479
sI874
g1
((lp2480
I57
atp2481
Rp2482
sI875
g1
((lp2483
I546
aI706
aI214
aI271
atp2484
Rp2485
sI876
g1
((lp2486
I490
atp2487
Rp2488
sI877
g1
((lp2489
I40
aI297
aI356
aI321
atp2490
Rp2491
sI878
g1
((lp2492
I699
aI12
aI286
atp2493
Rp2494
sI879
g1
((lp2495
I210
aI78
atp2496
Rp2497
sI880
g1
((lp2498
I328
atp2499
Rp2500
sI881
g1
((lp2501
I40
aI297
aI356
aI321
atp2502
Rp2503
sI882
g1
((lp2504
I270
atp2505
Rp2506
sI883
g1
((lp2507
I622
atp2508
Rp2509
sI884
g1
((lp2510
I50
atp2511
Rp2512
sI885
g1
((lp2513
I104
atp2514
Rp2515
sI886
g1
((lp2516
I168
aI10
aI4
atp2517
Rp2518
sI887
g1
((lp2519
I212
atp2520
Rp2521
sI888
g1
((lp2522
I111
atp2523
Rp2524
sI889
g1
((lp2525
I312
atp2526
Rp2527
sI890
g1
((lp2528
I681
atp2529
Rp2530
sI891
g1
((lp2531
I64
atp2532
Rp2533
sI894
g1
((lp2534
I321
atp2535
Rp2536
sI895
g1
((lp2537
I321
atp2538
Rp2539
sI896
g1
((lp2540
I12
atp2541
Rp2542
sI897
g1
((lp2543
I414
atp2544
Rp2545
sI898
g1
((lp2546
I546
aI829
aI462
atp2547
Rp2548
sI899
g1
((lp2549
I99
atp2550
Rp2551
sI900
g1
((lp2552
I130
atp2553
Rp2554
sI901
g1
((lp2555
I199
atp2556
Rp2557
sI902
g1
((lp2558
I537
atp2559
Rp2560
sI903
g1
((lp2561
I261
atp2562
Rp2563
sI904
g1
((lp2564
I462
atp2565
Rp2566
sI905
g1
((lp2567
I209
atp2568
Rp2569
sI906
g1
((lp2570
I253
atp2571
Rp2572
sI907
g1
((lp2573
I64
atp2574
Rp2575
sI908
g1
((lp2576
I745
atp2577
Rp2578
sI909
g1
((lp2579
I210
atp2580
Rp2581
sI910
g1
((lp2582
I94
aI150
aI911
atp2583
Rp2584
sI911
g1
((lp2585
I910
atp2586
Rp2587
sI912
g1
((lp2588
I261
atp2589
Rp2590
sI913
g1
((lp2591
I101
atp2592
Rp2593
sI914
g1
((lp2594
I305
atp2595
Rp2596
sI915
g1
((lp2597
I618
atp2598
Rp2599
sI916
g1
((lp2600
I267
atp2601
Rp2602
sI917
g1
((lp2603
I434
atp2604
Rp2605
sI918
g1
((lp2606
I32
aI521
aI179
aI70
aI809
atp2607
Rp2608
sI919
g1
((lp2609
I829
atp2610
Rp2611
sI920
g1
((lp2612
I40
aI297
aI356
aI321
atp2613
Rp2614
sI921
g1
((lp2615
I561
aI426
atp2616
Rp2617
sI922
g1
((lp2618
I253
atp2619
Rp2620
sI923
g1
((lp2621
I210
atp2622
Rp2623
sI924
g1
((lp2624
I297
atp2625
Rp2626
sI925
g1
((lp2627
I248
aI171
atp2628
Rp2629
sI926
g1
((lp2630
I428
atp2631
Rp2632
sI927
g1
((lp2633
I188
atp2634
Rp2635
sI928
g1
((lp2636
I561
aI426
atp2637
Rp2638
sI930
g1
((lp2639
I342
atp2640
Rp2641
sI933
g1
((lp2642
I210
atp2643
Rp2644
sI934
g1
((lp2645
I428
atp2646
Rp2647
sI935
g1
((lp2648
I1
aI702
atp2649
Rp2650
sI936
g1
((lp2651
I45
atp2652
Rp2653
sI937
g1
((lp2654
I104
atp2655
Rp2656
sI938
g1
((lp2657
I111
atp2658
Rp2659
sI941
g1
((lp2660
I618
atp2661
Rp2662
sI942
g1
((lp2663
I210
atp2664
Rp2665
sI943
g1
((lp2666
I45
atp2667
Rp2668
sI944
g1
((lp2669
I164
atp2670
Rp2671
sI945
g1
((lp2672
I530
aI237
atp2673
Rp2674
sI946
g1
((lp2675
I342
atp2676
Rp2677
sI948
g1
((lp2678
I121
aI114
aI210
aI182
atp2679
Rp2680
sI949
g1
((lp2681
I375
atp2682
Rp2683
sI950
g1
((lp2684
I12
atp2685
Rp2686
sI951
g1
((lp2687
I32
aI69
aI70
aI50
aI51
aI381
atp2688
Rp2689
sI952
g1
((lp2690
I392
atp2691
Rp2692
sI953
g1
((lp2693
I34
aI35
aI791
atp2694
Rp2695
sI954
g1
((lp2696
I57
atp2697
Rp2698
sI955
g1
((lp2699
I111
atp2700
Rp2701
sI956
g1
((lp2702
I26
atp2703
Rp2704
sI957
g1
((lp2705
I111
atp2706
Rp2707
sI958
g1
((lp2708
I426
atp2709
Rp2710
sI959
g1
((lp2711
I388
atp2712
Rp2713
sI960
g1
((lp2714
I155
atp2715
Rp2716
sI961
g1
((lp2717
I1184
aI962
aI311
atp2718
Rp2719
sI962
g1
((lp2720
I961
atp2721
Rp2722
sI963
g1
((lp2723
I267
atp2724
Rp2725
sI964
g1
((lp2726
I64
atp2727
Rp2728
sI965
g1
((lp2729
I34
aI35
aI231
atp2730
Rp2731
sI966
g1
((lp2732
I371
aI175
atp2733
Rp2734
sI967
g1
((lp2735
I826
aI758
atp2736
Rp2737
sI968
g1
((lp2738
I22
atp2739
Rp2740
sI969
g1
((lp2741
I210
atp2742
Rp2743
sI970
g1
((lp2744
I341
atp2745
Rp2746
sI971
g1
((lp2747
I51
aI70
atp2748
Rp2749
sI972
g1
((lp2750
I533
atp2751
Rp2752
sI975
g1
((lp2753
I49
atp2754
Rp2755
sI976
g1
((lp2756
I519
atp2757
Rp2758
sI977
g1
((lp2759
I155
atp2760
Rp2761
sI978
g1
((lp2762
I210
atp2763
Rp2764
sI979
g1
((lp2765
I12
aI286
atp2766
Rp2767
sI982
g1
((lp2768
I103
atp2769
Rp2770
sI983
g1
((lp2771
I383
atp2772
Rp2773
sI984
g1
((lp2774
I171
atp2775
Rp2776
sI985
g1
((lp2777
I132
atp2778
Rp2779
sI988
g1
((lp2780
I109
atp2781
Rp2782
sI989
g1
((lp2783
I210
atp2784
Rp2785
sI992
g1
((lp2786
I121
aI63
aI141
aI198
aI29
atp2787
Rp2788
sI993
g1
((lp2789
I1256
aI475
atp2790
Rp2791
sI994
g1
((lp2792
I588
atp2793
Rp2794
sI995
g1
((lp2795
I225
aI201
aI16
aI373
aI73
aI184
aI223
atp2796
Rp2797
sI996
g1
((lp2798
I210
atp2799
Rp2800
sI997
g1
((lp2801
I164
atp2802
Rp2803
sI1000
g1
((lp2804
I189
atp2805
Rp2806
sI1001
g1
((lp2807
I210
atp2808
Rp2809
sI1002
g1
((lp2810
I350
atp2811
Rp2812
sI1003
g1
((lp2813
I49
atp2814
Rp2815
sI1004
g1
((lp2816
I681
atp2817
Rp2818
sI1007
g1
((lp2819
I226
atp2820
Rp2821
sI1008
g1
((lp2822
I130
aI1255
atp2823
Rp2824
sI1009
g1
((lp2825
I379
atp2826
Rp2827
sI1010
g1
((lp2828
I195
atp2829
Rp2830
sI1011
g1
((lp2831
I1120
aI44
atp2832
Rp2833
sI1014
g1
((lp2834
I221
atp2835
Rp2836
sI1015
g1
((lp2837
I434
atp2838
Rp2839
sI1016
g1
((lp2840
I64
atp2841
Rp2842
sI1017
g1
((lp2843
I8
aI160
atp2844
Rp2845
sI1018
g1
((lp2846
I201
atp2847
Rp2848
sI1019
g1
((lp2849
I261
atp2850
Rp2851
sI1020
g1
((lp2852
I137
atp2853
Rp2854
sI1021
g1
((lp2855
I278
atp2856
Rp2857
sI1022
g1
((lp2858
I62
atp2859
Rp2860
sI1023
g1
((lp2861
I335
atp2862
Rp2863
sI1024
g1
((lp2864
I244
atp2865
Rp2866
sI1025
g1
((lp2867
I210
atp2868
Rp2869
sI1026
g1
((lp2870
I591
atp2871
Rp2872
sI1027
g1
((lp2873
I509
atp2874
Rp2875
sI1028
g1
((lp2876
I537
atp2877
Rp2878
sI1034
g1
((lp2879
I210
atp2880
Rp2881
sI1035
g1
((lp2882
I113
atp2883
Rp2884
sI1036
g1
((lp2885
I210
atp2886
Rp2887
sI1037
g1
((lp2888
I109
aI311
atp2889
Rp2890
sI1040
g1
((lp2891
I424
atp2892
Rp2893
sI1041
g1
((lp2894
I210
atp2895
Rp2896
sI1042
g1
((lp2897
I312
atp2898
Rp2899
sI1043
g1
((lp2900
I210
atp2901
Rp2902
sI1044
g1
((lp2903
I164
atp2904
Rp2905
sI1045
g1
((lp2906
I210
atp2907
Rp2908
sI1046
g1
((lp2909
I26
atp2910
Rp2911
sI1047
g1
((lp2912
I823
atp2913
Rp2914
sI1049
g1
((lp2915
I75
atp2916
Rp2917
sI1050
g1
((lp2918
I210
atp2919
Rp2920
sI1051
g1
((lp2921
I55
atp2922
Rp2923
sI1052
g1
((lp2924
I1053
aI175
atp2925
Rp2926
sI1053
g1
((lp2927
I1052
aI399
atp2928
Rp2929
sI1054
g1
((lp2930
I1281
aI44
aI1109
aI1206
aI1221
atp2931
Rp2932
sI1057
g1
((lp2933
I210
atp2934
Rp2935
sI1058
g1
((lp2936
I267
atp2937
Rp2938
sI1059
g1
((lp2939
I188
atp2940
Rp2941
sI1060
g1
((lp2942
I92
atp2943
Rp2944
sI1061
g1
((lp2945
I530
aI237
atp2946
Rp2947
sI1062
g1
((lp2948
I45
atp2949
Rp2950
sI1063
g1
((lp2951
I519
atp2952
Rp2953
sI1065
g1
((lp2954
I312
atp2955
Rp2956
sI1066
g1
((lp2957
I264
atp2958
Rp2959
sI1067
g1
((lp2960
I388
atp2961
Rp2962
sI1068
g1
((lp2963
I141
atp2964
Rp2965
sI1069
g1
((lp2966
I360
atp2967
Rp2968
sI1070
g1
((lp2969
I155
atp2970
Rp2971
sI1071
g1
((lp2972
I434
atp2973
Rp2974
sI1072
g1
((lp2975
I533
atp2976
Rp2977
sI1073
g1
((lp2978
I426
atp2979
Rp2980
sI1074
g1
((lp2981
I92
atp2982
Rp2983
sI1075
g1
((lp2984
I153
aI94
atp2985
Rp2986
sI1076
g1
((lp2987
I544
atp2988
Rp2989
sI1077
g1
((lp2990
I50
atp2991
Rp2992
sI1078
g1
((lp2993
I338
atp2994
Rp2995
sI1079
g1
((lp2996
I349
atp2997
Rp2998
sI1080
g1
((lp2999
I111
atp3000
Rp3001
sI1081
g1
((lp3002
I210
atp3003
Rp3004
sI1082
g1
((lp3005
I455
atp3006
Rp3007
sI1083
g1
((lp3008
I45
atp3009
Rp3010
sI1086
g1
((lp3011
I458
atp3012
Rp3013
sI1087
g1
((lp3014
I130
atp3015
Rp3016
sI1089
g1
((lp3017
I64
atp3018
Rp3019
sI1090
g1
((lp3020
I210
atp3021
Rp3022
sI1091
g1
((lp3023
I9
atp3024
Rp3025
sI1092
g1
((lp3026
I90
aI196
aI98
atp3027
Rp3028
sI1093
g1
((lp3029
I26
atp3030
Rp3031
sI1094
g1
((lp3032
I253
atp3033
Rp3034
sI1095
g1
((lp3035
I679
atp3036
Rp3037
sI1096
g1
((lp3038
I210
atp3039
Rp3040
sI1097
g1
((lp3041
I391
atp3042
Rp3043
sI1098
g1
((lp3044
I134
atp3045
Rp3046
sI1099
g1
((lp3047
I261
atp3048
Rp3049
sI1100
g1
((lp3050
I325
aI342
atp3051
Rp3052
sI1101
g1
((lp3053
I434
atp3054
Rp3055
sI1104
g1
((lp3056
I171
aI66
aI83
aI330
atp3057
Rp3058
sI1105
g1
((lp3059
I71
atp3060
Rp3061
sI1106
g1
((lp3062
I176
aI721
atp3063
Rp3064
sI1107
g1
((lp3065
I40
atp3066
Rp3067
sI1108
g1
((lp3068
I273
atp3069
Rp3070
sI1109
g1
((lp3071
I1054
atp3072
Rp3073
sI1110
g1
((lp3074
I25
atp3075
Rp3076
sI1111
g1
((lp3077
I210
atp3078
Rp3079
sI1112
g1
((lp3080
I214
atp3081
Rp3082
sI1113
g1
((lp3083
I396
atp3084
Rp3085
sI1114
g1
((lp3086
I396
atp3087
Rp3088
sI1115
g1
((lp3089
I193
aI12
aI622
atp3090
Rp3091
sI1116
g1
((lp3092
I111
atp3093
Rp3094
sI1117
g1
((lp3095
I210
atp3096
Rp3097
sI1118
g1
((lp3098
I210
atp3099
Rp3100
sI1119
g1
((lp3101
I350
atp3102
Rp3103
sI1120
g1
((lp3104
I1011
atp3105
Rp3106
sI1121
g1
((lp3107
I40
aI41
atp3108
Rp3109
sI1122
g1
((lp3110
I55
atp3111
Rp3112
sI1123
g1
((lp3113
I64
atp3114
Rp3115
sI1124
g1
((lp3116
I210
atp3117
Rp3118
sI1125
g1
((lp3119
I230
atp3120
Rp3121
sI1126
g1
((lp3122
I519
atp3123
Rp3124
sI1127
g1
((lp3125
I537
atp3126
Rp3127
sI1128
g1
((lp3128
I210
atp3129
Rp3130
sI1129
g1
((lp3131
I699
aI12
aI286
atp3132
Rp3133
sI1130
g1
((lp3134
I199
atp3135
Rp3136
sI1131
g1
((lp3137
I537
atp3138
Rp3139
sI1132
g1
((lp3140
I261
atp3141
Rp3142
sI1133
g1
((lp3143
I175
atp3144
Rp3145
sI1134
g1
((lp3146
I210
atp3147
Rp3148
sI1135
g1
((lp3149
I365
atp3150
Rp3151
sI1136
g1
((lp3152
I19
atp3153
Rp3154
sI1137
g1
((lp3155
I221
atp3156
Rp3157
sI1139
g1
((lp3158
I635
atp3159
Rp3160
sI1140
g1
((lp3161
I201
aI50
atp3162
Rp3163
sI1141
g1
((lp3164
I44
atp3165
Rp3166
sI1142
g1
((lp3167
I349
atp3168
Rp3169
sI1143
g1
((lp3170
I745
atp3171
Rp3172
sI1144
g1
((lp3173
I132
atp3174
Rp3175
sI1145
g1
((lp3176
I64
atp3177
Rp3178
sI1146
g1
((lp3179
I260
atp3180
Rp3181
sI1147
g1
((lp3182
I253
atp3183
Rp3184
sI1148
g1
((lp3185
I275
atp3186
Rp3187
sI1149
g1
((lp3188
I161
atp3189
Rp3190
sI1150
g1
((lp3191
I101
atp3192
Rp3193
sI1151
g1
((lp3194
I618
atp3195
Rp3196
sI1152
g1
((lp3197
I210
atp3198
Rp3199
sI1153
g1
((lp3200
I399
atp3201
Rp3202
sI1154
g1
((lp3203
I45
atp3204
Rp3205
sI1155
g1
((lp3206
I122
atp3207
Rp3208
sI1158
g1
((lp3209
I374
atp3210
Rp3211
sI1161
g1
((lp3212
I278
atp3213
Rp3214
sI1162
g1
((lp3215
I791
atp3216
Rp3217
sI1163
g1
((lp3218
I267
atp3219
Rp3220
sI1164
g1
((lp3221
I134
atp3222
Rp3223
sI1165
g1
((lp3224
I132
atp3225
Rp3226
sI1166
g1
((lp3227
I278
atp3228
Rp3229
sI1167
g1
((lp3230
I434
atp3231
Rp3232
sI1168
g1
((lp3233
I434
atp3234
Rp3235
sI1169
g1
((lp3236
I208
atp3237
Rp3238
sI1170
g1
((lp3239
I40
atp3240
Rp3241
sI1171
g1
((lp3242
I499
atp3243
Rp3244
sI1172
g1
((lp3245
I210
atp3246
Rp3247
sI1173
g1
((lp3248
I210
atp3249
Rp3250
sI1174
g1
((lp3251
I130
atp3252
Rp3253
sI1175
g1
((lp3254
I537
atp3255
Rp3256
sI1176
g1
((lp3257
I71
atp3258
Rp3259
sI1177
g1
((lp3260
I745
atp3261
Rp3262
sI1178
g1
((lp3263
I19
atp3264
Rp3265
sI1179
g1
((lp3266
I537
atp3267
Rp3268
sI1180
g1
((lp3269
I537
atp3270
Rp3271
sI1183
g1
((lp3272
I221
atp3273
Rp3274
sI1184
g1
((lp3275
I961
atp3276
Rp3277
sI1185
g1
((lp3278
I681
atp3279
Rp3280
sI1186
g1
((lp3281
I252
atp3282
Rp3283
sI1187
g1
((lp3284
I111
atp3285
Rp3286
sI1188
g1
((lp3287
I42
atp3288
Rp3289
sI1189
g1
((lp3290
I64
atp3291
Rp3292
sI1190
g1
((lp3293
I130
atp3294
Rp3295
sI1191
g1
((lp3296
I101
atp3297
Rp3298
sI1192
g1
((lp3299
I71
atp3300
Rp3301
sI1193
g1
((lp3302
I103
atp3303
Rp3304
sI1194
g1
((lp3305
I45
atp3306
Rp3307
sI1198
g1
((lp3308
I68
aI324
atp3309
Rp3310
sI1199
g1
((lp3311
I120
atp3312
Rp3313
sI1200
g1
((lp3314
I547
atp3315
Rp3316
sI1201
g1
((lp3317
I64
atp3318
Rp3319
sI1202
g1
((lp3320
I447
atp3321
Rp3322
sI1203
g1
((lp3323
I337
atp3324
Rp3325
sI1204
g1
((lp3326
I130
atp3327
Rp3328
sI1205
g1
((lp3329
I155
atp3330
Rp3331
sI1206
g1
((lp3332
I1054
atp3333
Rp3334
sI1207
g1
((lp3335
I61
atp3336
Rp3337
sI1208
g1
((lp3338
I210
atp3339
Rp3340
sI1209
g1
((lp3341
I45
atp3342
Rp3343
sI1210
g1
((lp3344
I22
atp3345
Rp3346
sI1211
g1
((lp3347
I745
atp3348
Rp3349
sI1212
g1
((lp3350
I122
atp3351
Rp3352
sI1213
g1
((lp3353
I193
aI622
atp3354
Rp3355
sI1214
g1
((lp3356
I603
atp3357
Rp3358
sI1215
g1
((lp3359
I111
atp3360
Rp3361
sI1216
g1
((lp3362
I40
atp3363
Rp3364
sI1217
g1
((lp3365
I210
atp3366
Rp3367
sI1218
g1
((lp3368
I462
atp3369
Rp3370
sI1219
g1
((lp3371
I210
aI78
atp3372
Rp3373
sI1220
g1
((lp3374
I376
atp3375
Rp3376
sI1221
g1
((lp3377
I1054
atp3378
Rp3379
sI1222
g1
((lp3380
I64
atp3381
Rp3382
sI1223
g1
((lp3383
I12
aI286
atp3384
Rp3385
sI1224
g1
((lp3386
I210
atp3387
Rp3388
sI1225
g1
((lp3389
I64
atp3390
Rp3391
sI1226
g1
((lp3392
I171
atp3393
Rp3394
sI1227
g1
((lp3395
I270
atp3396
Rp3397
sI1228
g1
((lp3398
I134
atp3399
Rp3400
sI1229
g1
((lp3401
I130
atp3402
Rp3403
sI1230
g1
((lp3404
I210
atp3405
Rp3406
sI1232
g1
((lp3407
I632
atp3408
Rp3409
sI1233
g1
((lp3410
I509
atp3411
Rp3412
sI1234
g1
((lp3413
I188
atp3414
Rp3415
sI1235
g1
((lp3416
I130
atp3417
Rp3418
sI1236
g1
((lp3419
I328
atp3420
Rp3421
sI1237
g1
((lp3422
I213
atp3423
Rp3424
sI1238
g1
((lp3425
I132
atp3426
Rp3427
sI1239
g1
((lp3428
I210
atp3429
Rp3430
sI1240
g1
((lp3431
I212
atp3432
Rp3433
sI1241
g1
((lp3434
I111
atp3435
Rp3436
sI1242
g1
((lp3437
I226
atp3438
Rp3439
sI1245
g1
((lp3440
I603
atp3441
Rp3442
sI1246
g1
((lp3443
I12
aI286
atp3444
Rp3445
sI1247
g1
((lp3446
I95
atp3447
Rp3448
sI1248
g1
((lp3449
I114
atp3450
Rp3451
sI1249
g1
((lp3452
I28
atp3453
Rp3454
sI1250
g1
((lp3455
I537
atp3456
Rp3457
sI1251
g1
((lp3458
I130
atp3459
Rp3460
sI1252
g1
((lp3461
I111
atp3462
Rp3463
sI1253
g1
((lp3464
I426
atp3465
Rp3466
sI1254
g1
((lp3467
I267
atp3468
Rp3469
sI1255
g1
((lp3470
I1008
atp3471
Rp3472
sI1256
g1
((lp3473
I993
atp3474
Rp3475
sI1257
g1
((lp3476
I455
atp3477
Rp3478
sI1258
g1
((lp3479
I64
atp3480
Rp3481
sI1260
g1
((lp3482
I130
atp3483
Rp3484
sI1261
g1
((lp3485
I31
atp3486
Rp3487
sI1262
g1
((lp3488
I292
atp3489
Rp3490
sI1263
g1
((lp3491
I64
atp3492
Rp3493
sI1264
g1
((lp3494
I171
atp3495
Rp3496
sI1265
g1
((lp3497
I537
atp3498
Rp3499
sI1266
g1
((lp3500
I94
atp3501
Rp3502
sI1267
g1
((lp3503
I533
atp3504
Rp3505
sI1268
g1
((lp3506
I68
atp3507
Rp3508
sI1269
g1
((lp3509
I201
atp3510
Rp3511
sI1270
g1
((lp3512
I212
atp3513
Rp3514
sI1271
g1
((lp3515
I335
atp3516
Rp3517
sI1272
g1
((lp3518
I825
atp3519
Rp3520
sI1273
g1
((lp3521
I721
atp3522
Rp3523
sI1274
g1
((lp3524
I458
atp3525
Rp3526
sI1275
g1
((lp3527
I59
atp3528
Rp3529
sI1276
g1
((lp3530
I537
atp3531
Rp3532
sI1277
g1
((lp3533
I130
atp3534
Rp3535
sI1278
g1
((lp3536
I569
atp3537
Rp3538
sI1279
g1
((lp3539
I305
atp3540
Rp3541
sI1280
g1
((lp3542
I90
atp3543
Rp3544
sI1281
g1
((lp3545
I1054
atp3546
Rp3547
sI1282
g1
((lp3548
I109
atp3549
Rp3550
sI1283
g1
((lp3551
I318
atp3552
Rp3553
sI1284
g1
((lp3554
I210
atp3555
Rp3556
sI1285
g1
((lp3557
I111
atp3558
Rp3559
sI1288
g1
((lp3560
I434
atp3561
Rp3562
sI1289
g1
((lp3563
I64
atp3564
Rp3565
sI1291
g1
((lp3566
I210
atp3567
Rp3568
sI1292
g1
((lp3569
I665
atp3570
Rp3571
sI1293
g1
((lp3572
I534
atp3573
Rp3574
sI1294
g1
((lp3575
I64
atp3576
Rp3577
sI1295
g1
((lp3578
I270
atp3579
Rp3580
sI1296
g1
((lp3581
I210
atp3582
Rp3583
sI1297
g1
((lp3584
I533
atp3585
Rp3586
sI1298
g1
((lp3587
I383
atp3588
Rp3589
sI1299
g1
((lp3590
I826
atp3591
Rp3592
sI1300
g1
((lp3593
I428
aI45
atp3594
Rp3595
sI1301
g1
((lp3596
I130
atp3597
Rp3598
sI1302
g1
((lp3599
I210
atp3600
Rp3601
sI1303
g1
((lp3602
I210
atp3603
Rp3604
sI1304
g1
((lp3605
I64
atp3606
Rp3607
sI1305
g1
((lp3608
I267
atp3609
Rp3610
sI1306
g1
((lp3611
I122
atp3612
Rp3613
sI1307
g1
((lp3614
I45
atp3615
Rp3616
sI1308
g1
((lp3617
I210
atp3618
Rp3619
sI1309
g1
((lp3620
I210
aI22
atp3621
Rp3622
sI1310
g1
((lp3623
I101
atp3624
Rp3625
sI1311
g1
((lp3626
I171
atp3627
Rp3628
sI1312
g1
((lp3629
I139
atp3630
Rp3631
sI1313
g1
((lp3632
I64
atp3633
Rp3634
sI1314
g1
((lp3635
I292
atp3636
Rp3637
sI1315
g1
((lp3638
I11
atp3639
Rp3640
sI1316
g1
((lp3641
I221
atp3642
Rp3643
sI1317
g1
((lp3644
I745
atp3645
Rp3646
sI1318
g1
((lp3647
I122
atp3648
Rp3649
sI1319
g1
((lp3650
I349
atp3651
Rp3652
sI1320
g1
((lp3653
I85
atp3654
Rp3655
sI1321
g1
((lp3656
I111
atp3657
Rp3658
sI1322
g1
((lp3659
I632
atp3660
Rp3661
sI1323
g1
((lp3662
I426
atp3663
Rp3664
sI1324
g1
((lp3665
I61
atp3666
Rp3667
sI1325
g1
((lp3668
I144
atp3669
Rp3670
sI1326
g1
((lp3671
I260
atp3672
Rp3673
sI1327
g1
((lp3674
I103
atp3675
Rp3676
sI1330
g1
((lp3677
I199
atp3678
Rp3679
sI1333
g1
((lp3680
I101
atp3681
Rp3682
sI1334
g1
((lp3683
I15
atp3684
Rp3685
sI1335
g1
((lp3686
I519
atp3687
Rp3688
sI1336
g1
((lp3689
I434
atp3690
Rp3691
sI1337
g1
((lp3692
I52
atp3693
Rp3694
sI1338
g1
((lp3695
I76
atp3696
Rp3697
sI1340
g1
((lp3698
I164
atp3699
Rp3700
sI1341
g1
((lp3701
I210
atp3702
Rp3703
sI1342
g1
((lp3704
I582
atp3705
Rp3706
sI1343
g1
((lp3707
I164
atp3708
Rp3709
sI1344
g1
((lp3710
I428
atp3711
Rp3712
sI1345
g1
((lp3713
I533
atp3714
Rp3715
sI1346
g1
((lp3716
I52
atp3717
Rp3718
s.